Archive member included because of file (symbol)

..\..\..\..\bin\framework\peripheral\PIC32MZ2048ECH144_peripherals.a(plib_eth_lib.o)
                              build/default/production/_ext/1908841681/drv_ethmac.o (PLIB_ETH_MACSetAddress)

Optional file libmchp_peripheral.a not found

Optional file libmchp_peripheral_32MZ2048ECH144.a not found
c:/program files (x86)/microchip/xc32/v1.40/bin/bin/../../lib/gcc/pic32mx/4.8.3\libgcc.a(_udivdi3.o)
                              build/default/production/_ext/1264926591/sys_tmr.o (__udivdi3)
c:/program files (x86)/microchip/xc32/v1.40/bin/bin/../../lib/gcc/pic32mx/4.8.3/../../../../pic32mx/lib\libpic32.a(memcmp.o)
                              build/default/production/_ext/1908841681/drv_ethmac.o (memcmp)
c:/program files (x86)/microchip/xc32/v1.40/bin/bin/../../lib/gcc/pic32mx/4.8.3/../../../../pic32mx/lib\libpic32.a(memcpy.o)
                              build/default/production/_ext/1408260596/tcp.o (memcpy)
c:/program files (x86)/microchip/xc32/v1.40/bin/bin/../../lib/gcc/pic32mx/4.8.3/../../../../pic32mx/lib\libpic32.a(memset.o)
                              build/default/production/_ext/1886890887/random.o (memset)
c:/program files (x86)/microchip/xc32/v1.40/bin/bin/../../lib/gcc/pic32mx/4.8.3/../../../../pic32mx/lib\libpic32.a(strcmp.o)
                              build/default/production/_ext/1408260596/tcpip_helpers.o (strcmp)
c:/program files (x86)/microchip/xc32/v1.40/bin/bin/../../lib/gcc/pic32mx/4.8.3/../../../../pic32mx/lib\libpic32.a(strcpy.o)
                              build/default/production/_ext/1408260596/tcpip_helpers.o (strcpy)
c:/program files (x86)/microchip/xc32/v1.40/bin/bin/../../lib/gcc/pic32mx/4.8.3/../../../../pic32mx/lib\libpic32.a(strlen.o)
                              build/default/production/_ext/1360937237/app.o (strlen)
c:/program files (x86)/microchip/xc32/v1.40/bin/bin/../../lib/gcc/pic32mx/4.8.3/../../../../pic32mx/lib\libpic32.a(default-bootstrap-exception-handler.o)
                              c:/program files (x86)/microchip/xc32/v1.40/bin/bin/../../lib/gcc/pic32mx/4.8.3/../../../../pic32mx/lib/./proc/32MZ2048ECH144/crt0_mips32r2.o (_bootstrap_exception_handler)
c:/program files (x86)/microchip/xc32/v1.40/bin/bin/../../lib/gcc/pic32mx/4.8.3/../../../../pic32mx/lib\libpic32.a(default-on-reset.o)
                              c:/program files (x86)/microchip/xc32/v1.40/bin/bin/../../lib/gcc/pic32mx/4.8.3/../../../../pic32mx/lib/./proc/32MZ2048ECH144/crt0_mips32r2.o (_on_reset)
c:/program files (x86)/microchip/xc32/v1.40/bin/bin/../../lib/gcc/pic32mx/4.8.3/../../../../pic32mx/lib\libpic32.a(default-on-bootstrap.o)
                              c:/program files (x86)/microchip/xc32/v1.40/bin/bin/../../lib/gcc/pic32mx/4.8.3/../../../../pic32mx/lib/./proc/32MZ2048ECH144/crt0_mips32r2.o (_on_bootstrap)
c:/program files (x86)/microchip/xc32/v1.40/bin/bin/../../lib/gcc/pic32mx/4.8.3/../../../../pic32mx/lib\libpic32.a(default-nmi-handler.o)
                              c:/program files (x86)/microchip/xc32/v1.40/bin/bin/../../lib/gcc/pic32mx/4.8.3/../../../../pic32mx/lib/./proc/32MZ2048ECH144/crt0_mips32r2.o (_nmi_handler)
c:/program files (x86)/microchip/xc32/v1.40/bin/bin/../../lib/gcc/pic32mx/4.8.3/../../../../pic32mx/lib\libpic32.a(pic32_init_cache.o)
                              c:/program files (x86)/microchip/xc32/v1.40/bin/bin/../../lib/gcc/pic32mx/4.8.3/../../../../pic32mx/lib/./proc/32MZ2048ECH144/crt0_mips32r2.o (__pic32_init_cache)
c:/program files (x86)/microchip/xc32/v1.40/bin/bin/../../lib/gcc/pic32mx/4.8.3/../../../../pic32mx/lib\libpic32.a(pic32_init_tlb_ebi_sqi.o)
                              c:/program files (x86)/microchip/xc32/v1.40/bin/bin/../../lib/gcc/pic32mx/4.8.3/../../../../pic32mx/lib/./proc/32MZ2048ECH144/crt0_mips32r2.o (__pic32_tlb_init_ebi_sqi)
c:/program files (x86)/microchip/xc32/v1.40/bin/bin/../../lib/gcc/pic32mx/4.8.3/../../../../pic32mx/lib\libpic32.a(general-exception.o)
                              c:/program files (x86)/microchip/xc32/v1.40/bin/bin/../../lib/gcc/pic32mx/4.8.3/../../../../pic32mx/lib/./proc/32MZ2048ECH144/crt0_mips32r2.o (_general_exception_context)
c:/program files (x86)/microchip/xc32/v1.40/bin/bin/../../lib/gcc/pic32mx/4.8.3/../../../../pic32mx/lib\libpic32.a(cache-err-exception.o)
                              c:/program files (x86)/microchip/xc32/v1.40/bin/bin/../../lib/gcc/pic32mx/4.8.3/../../../../pic32mx/lib/./proc/32MZ2048ECH144/crt0_mips32r2.o (_cache_err_exception_context)
c:/program files (x86)/microchip/xc32/v1.40/bin/bin/../../lib/gcc/pic32mx/4.8.3/../../../../pic32mx/lib\libpic32.a(simple-tlb-refill-exception.o)
                              c:/program files (x86)/microchip/xc32/v1.40/bin/bin/../../lib/gcc/pic32mx/4.8.3/../../../../pic32mx/lib/./proc/32MZ2048ECH144/crt0_mips32r2.o (_simple_tlb_refill_exception_context)
c:/program files (x86)/microchip/xc32/v1.40/bin/bin/../../lib/gcc/pic32mx/4.8.3/../../../../pic32mx/lib\libpic32.a(defaultinterrupt.o)
                              c:/program files (x86)/microchip/xc32/v1.40/bin/bin/../../lib/gcc/pic32mx/4.8.3/../../../../pic32mx/lib/./proc/32MZ2048ECH144\default_isr_vectors.o (_DefaultInterrupt)
c:/program files (x86)/microchip/xc32/v1.40/bin/bin/../../lib/gcc/pic32mx/4.8.3/../../../../pic32mx/lib\libpic32.a(default-cache-err-exception-handler.o)
                              c:/program files (x86)/microchip/xc32/v1.40/bin/bin/../../lib/gcc/pic32mx/4.8.3/../../../../pic32mx/lib\libpic32.a(cache-err-exception.o) (_cache_err_exception_handler)
c:/program files (x86)/microchip/xc32/v1.40/bin/bin/../../lib/gcc/pic32mx/4.8.3/../../../../pic32mx/lib\libpic32.a(default-simple-tlb-refill-exception-handler.o)
                              c:/program files (x86)/microchip/xc32/v1.40/bin/bin/../../lib/gcc/pic32mx/4.8.3/../../../../pic32mx/lib\libpic32.a(simple-tlb-refill-exception.o) (_simple_tlb_refill_exception_handler)
c:/program files (x86)/microchip/xc32/v1.40/bin/bin/../../lib/gcc/pic32mx/4.8.3/../../../../pic32mx/lib\libc.a(ctype.o)
                              build/default/production/_ext/1408260596/tcpip_helpers.o (_ctype)
c:/program files (x86)/microchip/xc32/v1.40/bin/bin/../../lib/gcc/pic32mx/4.8.3/../../../../pic32mx/lib\libc.a(malloc.o)
                              build/default/production/_ext/1408260596/tcpip_manager.o (malloc)
c:/program files (x86)/microchip/xc32/v1.40/bin/bin/../../lib/gcc/pic32mx/4.8.3/../../../../pic32mx/lib\libc.a(rand.o)
                              build/default/production/_ext/1886890887/random.o (srand)
c:/program files (x86)/microchip/xc32/v1.40/bin/bin/../../lib/gcc/pic32mx/4.8.3/../../../../pic32mx/lib\libc.a(strcat.o)
                              build/default/production/_ext/1360937237/app.o (strcat)
c:/program files (x86)/microchip/xc32/v1.40/bin/bin/../../lib/gcc/pic32mx/4.8.3/../../../../pic32mx/lib\libc.a(strncpy.o)
                              build/default/production/_ext/1908841681/drv_ethmac.o (strncpy)
c:/program files (x86)/microchip/xc32/v1.40/bin/bin/../../lib/gcc/pic32mx/4.8.3/../../../../pic32mx/lib\libc.a(strtol.o)
                              build/default/production/_ext/1408260596/tcpip_helpers.o (strtol)
c:/program files (x86)/microchip/xc32/v1.40/bin/bin/../../lib/gcc/pic32mx/4.8.3/../../../../pic32mx/lib\libc.a(sprintf_cdnopsuxX.eo)
                              build/default/production/_ext/1408260596/tcpip_packet.o (_sprintf_cdnopsuxX)
c:/program files (x86)/microchip/xc32/v1.40/bin/bin/../../lib/gcc/pic32mx/4.8.3/../../../../pic32mx/lib\libc.a(sprintf_cdnopuxX.eo)
                              build/default/production/_ext/1408260596/tcpip_helpers.o (_sprintf_cdnopuxX)
c:/program files (x86)/microchip/xc32/v1.40/bin/bin/../../lib/gcc/pic32mx/4.8.3/../../../../pic32mx/lib\libc.a(sprintf.o)
                              build/default/production/_ext/1360937237/app.o (sprintf)
c:/program files (x86)/microchip/xc32/v1.40/bin/bin/../../lib/gcc/pic32mx/4.8.3/../../../../pic32mx/lib\libc.a(vsnprintf.o)
                              build/default/production/_ext/1408260596/tcpip_packet.o (vsnprintf)
c:/program files (x86)/microchip/xc32/v1.40/bin/bin/../../lib/gcc/pic32mx/4.8.3/../../../../pic32mx/lib\libc.a(ctypef.o)
                              c:/program files (x86)/microchip/xc32/v1.40/bin/bin/../../lib/gcc/pic32mx/4.8.3/../../../../pic32mx/lib\libc.a(strtol.o) (toupper)
c:/program files (x86)/microchip/xc32/v1.40/bin/bin/../../lib/gcc/pic32mx/4.8.3/../../../../pic32mx/lib\libc.a(errno.o)
                              c:/program files (x86)/microchip/xc32/v1.40/bin/bin/../../lib/gcc/pic32mx/4.8.3/../../../../pic32mx/lib\libc.a(strtol.o) (errno)
c:/program files (x86)/microchip/xc32/v1.40/bin/bin/../../lib/gcc/pic32mx/4.8.3/../../../../pic32mx/lib\libc.a(doprnt_cdnopsuxX.eo)
                              c:/program files (x86)/microchip/xc32/v1.40/bin/bin/../../lib/gcc/pic32mx/4.8.3/../../../../pic32mx/lib\libc.a(sprintf_cdnopsuxX.eo) (_vfprintf_cdnopsuxX)
c:/program files (x86)/microchip/xc32/v1.40/bin/bin/../../lib/gcc/pic32mx/4.8.3/../../../../pic32mx/lib\libc.a(doprnt_cdnopuxX.eo)
                              c:/program files (x86)/microchip/xc32/v1.40/bin/bin/../../lib/gcc/pic32mx/4.8.3/../../../../pic32mx/lib\libc.a(sprintf_cdnopuxX.eo) (_vfprintf_cdnopuxX)
c:/program files (x86)/microchip/xc32/v1.40/bin/bin/../../lib/gcc/pic32mx/4.8.3/../../../../pic32mx/lib\libc.a(doprnt.o)
                              c:/program files (x86)/microchip/xc32/v1.40/bin/bin/../../lib/gcc/pic32mx/4.8.3/../../../../pic32mx/lib\libc.a(sprintf.o) (vfprintf)
c:/program files (x86)/microchip/xc32/v1.40/bin/bin/../../lib/gcc/pic32mx/4.8.3/../../../../pic32mx/lib\libc.a(_fputc_simple.o)
                              c:/program files (x86)/microchip/xc32/v1.40/bin/bin/../../lib/gcc/pic32mx/4.8.3/../../../../pic32mx/lib\libc.a(doprnt_cdnopsuxX.eo) (fputc)
c:/program files (x86)/microchip/xc32/v1.40/bin/bin/../../lib/gcc/pic32mx/4.8.3/../../../../pic32mx/lib\libc.a(powersf.o)
                              c:/program files (x86)/microchip/xc32/v1.40/bin/bin/../../lib/gcc/pic32mx/4.8.3/../../../../pic32mx/lib\libc.a(doprnt.o) (_powers_f)
c:/program files (x86)/microchip/xc32/v1.40/bin/bin/../../lib/gcc/pic32mx/4.8.3/../../../../pic32mx/lib\libc.a(_iob.o)
                              c:/program files (x86)/microchip/xc32/v1.40/bin/bin/../../lib/gcc/pic32mx/4.8.3/../../../../pic32mx/lib\libc.a(_fputc_simple.o) (_outdone)
c:/program files (x86)/microchip/xc32/v1.40/bin/bin/../../lib/gcc/pic32mx/4.8.3/../../../../pic32mx/lib\libc.a(_flsbuf_simple.o)
                              c:/program files (x86)/microchip/xc32/v1.40/bin/bin/../../lib/gcc/pic32mx/4.8.3/../../../../pic32mx/lib\libc.a(_fputc_simple.o) (_flsbuf)
c:/program files (x86)/microchip/xc32/v1.40/bin/bin/../../lib/gcc/pic32mx/4.8.3/../../../../pic32mx/lib\libpic32.a(sbrk.o)
                              c:/program files (x86)/microchip/xc32/v1.40/bin/bin/../../lib/gcc/pic32mx/4.8.3/../../../../pic32mx/lib\libc.a(malloc.o) (sbrk)
c:/program files (x86)/microchip/xc32/v1.40/bin/bin/../../lib/gcc/pic32mx/4.8.3/../../../../pic32mx/lib\libpic32.a(write.o)
                              c:/program files (x86)/microchip/xc32/v1.40/bin/bin/../../lib/gcc/pic32mx/4.8.3/../../../../pic32mx/lib\libc.a(_fputc_simple.o) (write)
c:/program files (x86)/microchip/xc32/v1.40/bin/bin/../../lib/gcc/pic32mx/4.8.3/../../../../pic32mx/lib\libpic32.a(_mon_putc.o)
                              c:/program files (x86)/microchip/xc32/v1.40/bin/bin/../../lib/gcc/pic32mx/4.8.3/../../../../pic32mx/lib\libpic32.a(write.o) (_mon_putc)
c:/program files (x86)/microchip/xc32/v1.40/bin/bin/../../lib/gcc/pic32mx/4.8.3/../../../../pic32mx/lib\libpic32.a(xc32_uart.o)
                              c:/program files (x86)/microchip/xc32/v1.40/bin/bin/../../lib/gcc/pic32mx/4.8.3/../../../../pic32mx/lib\libpic32.a(_mon_putc.o) (__XC_UART)
c:/program files (x86)/microchip/xc32/v1.40/bin/bin/../../lib/gcc/pic32mx/4.8.3/../../../../pic32mx/lib\libm.a(fp32div.o)
                              c:/program files (x86)/microchip/xc32/v1.40/bin/bin/../../lib/gcc/pic32mx/4.8.3/../../../../pic32mx/lib\libc.a(doprnt.o) (fpdiv)
c:/program files (x86)/microchip/xc32/v1.40/bin/bin/../../lib/gcc/pic32mx/4.8.3/../../../../pic32mx/lib\libm.a(fp32mul.o)
                              c:/program files (x86)/microchip/xc32/v1.40/bin/bin/../../lib/gcc/pic32mx/4.8.3/../../../../pic32mx/lib\libc.a(doprnt.o) (fpmul)
c:/program files (x86)/microchip/xc32/v1.40/bin/bin/../../lib/gcc/pic32mx/4.8.3/../../../../pic32mx/lib\libm.a(fp32subadd.o)
                              c:/program files (x86)/microchip/xc32/v1.40/bin/bin/../../lib/gcc/pic32mx/4.8.3/../../../../pic32mx/lib\libc.a(doprnt.o) (fpsub)
c:/program files (x86)/microchip/xc32/v1.40/bin/bin/../../lib/gcc/pic32mx/4.8.3/../../../../pic32mx/lib\libm.a(fpcmp.o)
                              c:/program files (x86)/microchip/xc32/v1.40/bin/bin/../../lib/gcc/pic32mx/4.8.3/../../../../pic32mx/lib\libc.a(doprnt.o) (fpcmp)
c:/program files (x86)/microchip/xc32/v1.40/bin/bin/../../lib/gcc/pic32mx/4.8.3/../../../../pic32mx/lib\libm.a(fpfrexp.o)
                              c:/program files (x86)/microchip/xc32/v1.40/bin/bin/../../lib/gcc/pic32mx/4.8.3/../../../../pic32mx/lib\libc.a(doprnt.o) (frexpf)
c:/program files (x86)/microchip/xc32/v1.40/bin/bin/../../lib/gcc/pic32mx/4.8.3/../../../../pic32mx/lib\libm.a(fptoul.o)
                              c:/program files (x86)/microchip/xc32/v1.40/bin/bin/../../lib/gcc/pic32mx/4.8.3/../../../../pic32mx/lib\libc.a(doprnt.o) (fptoui)
c:/program files (x86)/microchip/xc32/v1.40/bin/bin/../../lib/gcc/pic32mx/4.8.3/../../../../pic32mx/lib\libe.a(_floatdisf.o)
                              c:/program files (x86)/microchip/xc32/v1.40/bin/bin/../../lib/gcc/pic32mx/4.8.3/../../../../pic32mx/lib\libc.a(doprnt.o) (__floatdisf)
c:/program files (x86)/microchip/xc32/v1.40/bin/bin/../../lib/gcc/pic32mx/4.8.3\libgcc.a(_umoddi3.o)
                              c:/program files (x86)/microchip/xc32/v1.40/bin/bin/../../lib/gcc/pic32mx/4.8.3/../../../../pic32mx/lib\libc.a(doprnt_cdnopsuxX.eo) (__umoddi3)
c:/program files (x86)/microchip/xc32/v1.40/bin/bin/../../lib/gcc/pic32mx/4.8.3\libgcc.a(floatunsisf.o)
                              c:/program files (x86)/microchip/xc32/v1.40/bin/bin/../../lib/gcc/pic32mx/4.8.3/../../../../pic32mx/lib\libc.a(doprnt.o) (__floatunsisf)
c:/program files (x86)/microchip/xc32/v1.40/bin/bin/../../lib/gcc/pic32mx/4.8.3/../../../../pic32mx/lib\libm.a(sitofp.o)
                              c:/program files (x86)/microchip/xc32/v1.40/bin/bin/../../lib/gcc/pic32mx/4.8.3\libgcc.a(floatunsisf.o) (sitofp)

Allocating common symbols
Common symbol       size              file

gDrvETHPHYClientObj
                    0x34              build/default/production/_ext/732687875/drv_ethphy.o
buffer              0xff              build/default/production/_ext/1360937237/app.o
buffer_RPM          0x5               build/default/production/_ext/1360937237/app.o
ENETbuffRX          0x80              build/default/production/_ext/1360937237/app.o
appData             0x38              build/default/production/_ext/1360937237/app.o
buffer_AP           0x5               build/default/production/_ext/1360937237/app.o
buffer_AT           0x5               build/default/production/_ext/1360937237/app.o
sysObj              0x10              build/default/production/_ext/1688732426/system_init.o
lastBlock           0x40              build/default/production/_ext/1136935090/hashes.o
buffer_TR           0x5               build/default/production/_ext/1360937237/app.o
app2Data            0x8               build/default/production/_ext/1360937237/app2.o
value               0x4               build/default/production/_ext/1360937237/app.o
app1Data            0x8               build/default/production/_ext/1360937237/app1.o
buffer_Coolant      0x5               build/default/production/_ext/1360937237/app.o
CANbuffRX           0x80              build/default/production/_ext/1360937237/app.o
sysDevconObj        0x8               build/default/production/_ext/1271179505/sys_devcon.o
sysRandCtx          0x108             build/default/production/_ext/1283840359/sys_random.o
gDrvETHPHYObj       0x28              build/default/production/_ext/732687875/drv_ethphy.o
buffer_Ignition     0x5               build/default/production/_ext/1360937237/app.o
buffer_Battery      0x5               build/default/production/_ext/1360937237/app.o

Microchip PIC32 Memory-Usage Report

kseg0 Program-Memory Usage
section                    address  length [bytes]      (dec)  Description
-------                 ----------  -------------------------  -----------
.simple_tlb_refill_excp 0x9d000000           0x10          16   
.text._DRV_ETHPHY_Reset 0x9d000010           0xf0         240   
.cache_err_excpt        0x9d000100           0x10          16   
.text.DRV_ETHMAC_PIC32M 0x9d000110           0x70         112   
.app_excpt              0x9d000180           0x10          16  General-Exception 
.text._EnetPoolFreeDcpt 0x9d000190           0x70         112   
.vectors                0x9d000200           0x60          96   
.text.vfprintf          0x9d000260         0x1c08        7176   
.text.TCPIP_TCP_Task    0x9d001e68         0x1474        5236   
.text._vfprintf_cdnopsu 0x9d0032dc          0xad0        2768   
.text.TCPIP_STACK_Task  0x9d003dac          0x8b8        2232   
.text._TcpSend          0x9d004664          0x824        2084   
.dinit                  0x9d004e88          0x780        1920   
.text.APP_Tasks         0x9d005608          0x6d0        1744   
.text.TCPIP_ZCLL_Task   0x9d005cd8          0x600        1536   
.text.DRV_ETHMAC_PIC32M 0x9d0062d8          0x510        1296   
.text.TCPIP_ARP_Task    0x9d0067e8          0x508        1288   
.text                   0x9d006cf0          0x8bc        2236  App's exec code 
.text.APP2_Tasks        0x9d0075ac          0x3ac         940   
.text._TCP_Open         0x9d007958          0x37c         892   
.text.APP1_Tasks        0x9d007cd4          0x378         888   
.text.TCPIP_ANNOUNCE_Ta 0x9d00804c          0x368         872   
.text.TCPIP_NBNS_Task   0x9d0083b4          0x340         832   
.text.TCPIP_ARP_Initial 0x9d0086f4          0x334         820   
.text.TCPIP_STACK_Bring 0x9d008a28          0x308         776   
.text.TCPIP_UDP_Task    0x9d008d30          0x304         772   
.text.SYS_TMR_Tasks     0x9d009034          0x2f4         756   
.text._DRV_TMR_ClockSou 0x9d009328          0x2ec         748   
.text.TCPIP_IPV4_Packet 0x9d009614          0x2e4         740   
.text.DRV_TMR_Initializ 0x9d0098f8          0x2bc         700   
.text._DRV_PHY_SMITrans 0x9d009bb4          0x298         664   
.text.TCPIP_TCP_ArrayPu 0x9d009e4c          0x294         660   
.text.TCPIP_STACK_Initi 0x9d00a0e0          0x294         660   
.text.malloc            0x9d00a374          0x288         648   
.text.TCPIP_IPV4_Task   0x9d00a5fc          0x278         632   
.text.fpsubadd          0x9d00a874          0x278         632   
.text.TCPIP_UDP_Flush   0x9d00aaec          0x270         624   
.text.TCPIP_ICMP_Task   0x9d00ad5c          0x26c         620   
.text.DRV_CAN0_Initiali 0x9d00afc8          0x25c         604   
.text                   0x9d00b224          0x25c         604  App's exec code 
.text.DRV_ETHMAC_LibRxB 0x9d00b480          0x250         592   
.text.DRV_TMR_CounterFr 0x9d00b6d0          0x250         592   
.text._DRV_TMR_ClockPre 0x9d00b920          0x248         584   
.text.DRV_ETHMAC_PIC32M 0x9d00bb68          0x244         580   
.text._IntHandlerDrvCAN 0x9d00bdac          0x240         576   
.text._TCPIP_HEAP_Free  0x9d00bfec          0x230         560   
.text.fp32div           0x9d00c21c          0x230         560   
.text._UDPOpen          0x9d00c44c          0x220         544   
.text.scale             0x9d00c66c          0x21c         540   
.text.__floatdisf       0x9d00c888          0x214         532   
.text._DRV_ETHPHY_Setup 0x9d00ca9c          0x1f0         496   
.text._LoadNetworkConfi 0x9d00cc8c          0x1dc         476   
.text.DRV_ETHMAC_PIC32M 0x9d00ce68          0x1d4         468   
.text.DRV_ETHMAC_LibRxA 0x9d00d03c          0x1cc         460   
.text.TCPIP_Helper_Stri 0x9d00d208          0x1cc         460   
.text.TCPIP_UDP_Initial 0x9d00d3d4          0x1c8         456   
.text._EthAckPacket     0x9d00d59c          0x1bc         444   
.text.fp32mul           0x9d00d758          0x1bc         444   
.text.DRV_ETHMAC_LibIni 0x9d00d914          0x1b8         440   
.text.TCPIP_UDP_ArrayGe 0x9d00dacc          0x1b0         432   
.text.TCPIP_UDP_Options 0x9d00dc7c          0x1ac         428   
.text._DRV_ETHMAC_AddRx 0x9d00de28          0x1a8         424   
.text.TCPIP_UDP_Deiniti 0x9d00dfd0          0x1a8         424   
.text._IntHandlerDrvTmr 0x9d00e178          0x1a4         420   
.text.fround            0x9d00e31c          0x1a4         420   
.text._IntHandler_ETHMA 0x9d00e4c0          0x1a0         416   
.text.DRV_ETHMAC_LibRxG 0x9d00e660          0x19c         412   
.text.DRV_ETHMAC_LibMAC 0x9d00e7fc          0x198         408   
.text._ARPProbeAddress  0x9d00e994          0x198         408   
.text._sbrk_init        0x9d00eb2c          0x194         404   
.text.DRV_TMR_Alarm16Bi 0x9d00ecc0          0x190         400   
.text.TCPIP_TCP_ArrayGe 0x9d00ee50          0x190         400   
.text.DRV_EXTPHY_MDIXCo 0x9d00efe0          0x18c         396   
.text._DRV_TMR_Resume   0x9d00f16c          0x184         388   
.text._DRV_ETHPHY_NegRe 0x9d00f2f0          0x180         384   
.text._TCPIP_HEAP_Mallo 0x9d00f470          0x180         384   
.text.DRV_ETHMAC_PIC32M 0x9d00f5f0          0x17c         380   
.text.DRV_ETHMAC_LibTxS 0x9d00f76c          0x17c         380   
.text._ZeroconfARPPktNo 0x9d00f8e8          0x178         376   
.text._EthAppendBusyLis 0x9d00fa60          0x168         360   
.text.DRV_EXTPHY_MIICon 0x9d00fbc8          0x168         360   
.text                   0x9d00fd30          0x2d0         720  App's exec code 
.text._DRV_TMR_Suspend  0x9d010000          0x164         356   
.text._UDPv4AllocateSkt 0x9d010164          0x164         356   
.text.TCPIP_IPV4_Select 0x9d0102c8          0x164         356   
.text._SYS_TMR_ClientCr 0x9d01042c          0x160         352   
.text._DRV_ETHPHY_Setup 0x9d01058c          0x15c         348   
.text._ARPSendIfPkt     0x9d0106e8          0x15c         348   
.text._MACDeinit        0x9d010844          0x158         344   
.rodata                 0x9d01099c          0x154         340  Read-only const 
.text._TcpDisconnect    0x9d010af0          0x148         328   
.text._TcpCloseSocket   0x9d010c38          0x148         328   
.text.fputc             0x9d010d80          0x144         324   
.text.TCPIP_UDP_OpenSer 0x9d010ec4          0x140         320   
.text._DRV_ETHPHY_Setup 0x9d011004          0x13c         316   
.text.DRV_ETHMAC_PIC32M 0x9d011140          0x134         308   
.rodata                 0x9d011274          0x134         308  Read-only const 
.text._UDPv4TxAckFnc    0x9d0113a8          0x130         304   
.text.DRV_ETHMAC_LibDes 0x9d0114d8          0x12c         300   
.text._flsbuf           0x9d011604          0x12c         300   
.text.SYS_Initialize    0x9d011730          0x128         296   
.text._ARPDeleteResourc 0x9d011858          0x128         296   
.text.TCPIP_IPV4_ArpHan 0x9d011980          0x128         296   
.text._OAHashFindBkt    0x9d011aa8          0x124         292   
.text.TCPIP_Helper_Stri 0x9d011bcc          0x124         292   
.text._TCPIP_PKT_Flight 0x9d011cf0          0x124         292   
.text.DRV_ETHMAC_Tasks_ 0x9d011e14          0x120         288   
.text.TCPIP_Helper_Pack 0x9d011f34          0x120         288   
.text                   0x9d012054          0x120         288  App's exec code 
.text.SYS_CLK_Initializ 0x9d012174          0x11c         284   
.text.SYS_PORTS_Initial 0x9d012290          0x11c         284   
.text.DRV_ETHMAC_PIC32M 0x9d0123ac          0x11c         284   
.text._GetMaxSegSizeOpt 0x9d0124c8          0x11c         284   
.text.TCPIP_ARP_IsResol 0x9d0125e4          0x11c         284   
.text._MacRxPacketAck   0x9d012700          0x118         280   
.text.TCPIP_Helper_Pack 0x9d012818          0x118         280   
.text.DRV_ETHMAC_PIC32M 0x9d012930          0x114         276   
.text._DRV_ETHPHY_Setup 0x9d012a44          0x114         276   
.text.DRV_ETHMAC_LibClo 0x9d012b58          0x110         272   
.text.TCPIP_TCP_Initial 0x9d012c68          0x10c         268   
.text.TCPIP_ANNOUNCE_In 0x9d012d74          0x10c         268   
.text.TCPIP_STACK_Deini 0x9d012e80          0x10c         268   
.rodata                 0x9d012f8c          0x108         264  Read-only const 
.text._Tcpv4TxAckFnc    0x9d013094          0x104         260   
.rodata                 0x9d013198          0x104         260  Read-only const 
.text.changeFormat      0x9d01329c           0xfc         252   
.text._TcpSocketSetIdle 0x9d013398           0xfc         252   
.text.TCPIP_TCP_ServerO 0x9d013494           0xf8         248   
.text._DRV_ETHPHY_NegCo 0x9d01358c           0xf4         244   
.text.SYS_DEVCON_Perfor 0x9d013680           0xf4         244   
.text._DRV_ETHPHY_Setup 0x9d013774           0xec         236   
.text.DRV_ETHMAC_PIC32M 0x9d013860           0xe8         232   
.text._SYS_TMR_ClientPa 0x9d013948           0xe8         232   
.text.TCPIP_HEAP_Create 0x9d013a30           0xe8         232   
.text._TCPIP_StackSyncF 0x9d013b18           0xe8         232   
.rodata                 0x9d013c00           0xe8         232  Read-only const 
.text.TCPIP_NBNS_Initia 0x9d013ce8           0xe4         228   
.rodata                 0x9d013dcc           0xe0         224  Read-only const 
.text.DRV_ETHPHY_Setup  0x9d013eac           0xe0         224   
.text.TCPIP_OAHASH_Entr 0x9d013f8c           0xe0         224   
.rodata                 0x9d01406c           0xdc         220  Read-only const 
.text.DRV_ETHPHY_SMIClo 0x9d014148           0xdc         220   
.text._TCPIP_PKT_Packet 0x9d014224           0xdc         220   
.text.general_exception 0x9d014300           0xdc         220   
.text._ARPUpdateEntry   0x9d0143dc           0xd8         216   
.text._cache_err_except 0x9d0144b4           0xd8         216   
.text.simple_tlb_refill 0x9d01458c           0xd8         216   
.text._DRV_ETHPHY_NegRe 0x9d014664           0xd4         212   
.text.TCPIP_STACK_Bring 0x9d014738           0xd4         212   
.text._mon_putc         0x9d01480c           0xd4         212   
.text._MacTxPendingPack 0x9d0148e0           0xd0         208   
.rodata                 0x9d0149b0           0xd0         208  Read-only const 
.text.GenerateSeed      0x9d014a80           0xcc         204   
.text._DRV_ETHMAC_LinkS 0x9d014b4c           0xcc         204   
.text.TCPIP_UDP_RemoteB 0x9d014c18           0xcc         204   
.text.DRV_TMR_Tasks_ISR 0x9d014ce4           0xc8         200   
.text._UDPsetPacketInfo 0x9d014dac           0xc8         200   
.text.TCPIP_STACK_NetDo 0x9d014e74           0xc8         200   
.text._sbrk             0x9d014f3c           0xc8         200   
.text._TCPIPStackModule 0x9d015004           0xc4         196   
.text.TCPIP_UDP_ArrayPu 0x9d0150c8           0xc0         192   
.text.TCPIP_OAHASH_Entr 0x9d015188           0xc0         192   
.text.SYS_TMR_Initializ 0x9d015248           0xbc         188   
.text.TCPIP_PKT_DataSeg 0x9d015304           0xbc         188   
.text.TCPIP_IPV4_DeInit 0x9d0153c0           0xbc         188   
.tlb.__pic32_tlb_init_e 0x9d01547c           0xbc         188   
.text._EthTxSchedList   0x9d015538           0xb8         184   
.text.TCPIP_UDP_BcastIP 0x9d0155f0           0xb8         184   
.text.DRV_CAN0_Receive  0x9d0156a8           0xb4         180   
.text.DRV_ETHMAC_PIC32M 0x9d01575c           0xb4         180   
.text._EthTxSchedBuffer 0x9d015810           0xb4         180   
.text._ARPNotifyClients 0x9d0158c4           0xb4         180   
.text._DRV_ETHPHY_Reset 0x9d015978           0xb0         176   
.text.DRV_ETHPHY_Vendor 0x9d015a28           0xb0         176   
.text.TCPIP_ZCLL_Initia 0x9d015ad8           0xb0         176   
.text.TCPIP_STACK_Addre 0x9d015b88           0xb0         176   
.text.TCPIP_IPV4_Packet 0x9d015c38           0xb0         176   
.text._DRV_ETHMAC_LinkS 0x9d015ce8           0xac         172   
.text._DRV_ETHPHY_NegCo 0x9d015d94           0xac         172   
.text.DRV_ETHPHY_Vendor 0x9d015e40           0xac         172   
.text.TCPIP_TCP_Deiniti 0x9d015eec           0xac         172   
.text._TCPIPStackInsert 0x9d015f98           0xac         172   
.text.DRV_ETHMAC_PIC32M 0x9d016044           0xa8         168   
.text._DRV_ETHPHY_Setup 0x9d0160ec           0xa8         168   
.text.DRV_ETHPHY_SMIWri 0x9d016194           0xa8         168   
.text.TCPIP_IPV4_ListPu 0x9d01623c           0xa8         168   
.text.PLIB_ETH_MACSetAd 0x9d0162e4           0xa8         168   
.text                   0x9d01638c           0xa8         168  App's exec code 
.text.TCPIP_UDP_PutIsRe 0x9d016434           0xa4         164   
.text._DRV_ETHPHY_LinkS 0x9d0164d8           0xa0         160   
.text._TcpAbort         0x9d016578           0xa0         160   
.text._TCPSendWinIncUpd 0x9d016618           0xa0         160   
.text.TCPIP_Helper_Sing 0x9d0166b8           0xa0         160   
.text.TCPIP_PKT_PacketM 0x9d016758           0xa0         160   
.text._DRV_ETHMAC_LinkS 0x9d0167f8           0x9c         156   
.text.TCPIP_ARP_Probe   0x9d016894           0x9c         156   
.text.TCPIP_STACK_IPAdd 0x9d016930           0x9c         156   
.text.write             0x9d0169cc           0x9c         156   
.text.fpcmp             0x9d016a68           0x9c         156   
.text.DRV_ETHMAC_LibDes 0x9d016b04           0x98         152   
.text.TCPIP_UDP_Destina 0x9d016b9c           0x98         152   
.text._TCPIP_PKT_Packet 0x9d016c34           0x98         152   
.text                   0x9d016ccc           0x98         152  App's exec code 
.text._UDPSetNewRxPacke 0x9d016d64           0x94         148   
.text.TCPIP_ARP_EntryGe 0x9d016df8           0x94         148   
.rodata                 0x9d016e8c           0x94         148  Read-only const 
.text._DRV_ETHMAC_LinkS 0x9d016f20           0x90         144   
.text.DRV_ETHPHY_SMISca 0x9d016fb0           0x90         144   
.text._DRV_ETHPHY_NegCo 0x9d017040           0x90         144   
.text._SYS_TMR_ClientCh 0x9d0170d0           0x90         144   
.text._TcpCleanup       0x9d017160           0x90         144   
.text.TCPIP_UDP_SocketI 0x9d0171f0           0x90         144   
.text._TCPIPStackIpAddF 0x9d017280           0x90         144   
.text.TCPIP_IPV4_Initia 0x9d017310           0x90         144   
.text.hexatob           0x9d0173a0           0x8c         140   
.text._UDPFreeTxResourc 0x9d01742c           0x8c         140   
.text.TCPIP_Helper_Form 0x9d0174b8           0x8c         140   
.text.rand              0x9d017544           0x8c         140   
.text.DRV_CAN0_ChannelM 0x9d0175d0           0x88         136   
.text.SYS_RANDOM_Initia 0x9d017658           0x88         136   
.text.TCPIP_Helper_Prot 0x9d0176e0           0x88         136   
.text.libm              0x9d017768           0x88         136   
.text.DRV_ETHPHY_Vendor 0x9d0177f0           0x84         132   
.text._DRV_TMR_ModuleOb 0x9d017874           0x84         132   
.text._TcpClientSocketC 0x9d0178f8           0x84         132   
.text.zgzc_wait_for     0x9d01797c           0x84         132   
.text._TCPIPStackModule 0x9d017a00           0x84         132   
.text.TCPIP_PKT_Initial 0x9d017a84           0x84         132   
.text._DRV_ETHPHY_Setup 0x9d017b08           0x80         128   
.text.DRV_ETHPHY_SMISca 0x9d017b88           0x80         128   
.text.TCPIP_ICMP_Initia 0x9d017c08           0x80         128   
.text._DRV_ETHPHY_Setup 0x9d017c88           0x7c         124   
.text.DRV_ETHPHY_SMIRea 0x9d017d04           0x7c         124   
.text.DRV_ETHPHY_SMISca 0x9d017d80           0x7c         124   
.text._TCP_EphemeralPor 0x9d017dfc           0x7c         124   
.text._UDPAllocateEphem 0x9d017e78           0x7c         124   
.text.TCPIP_ARP_Deiniti 0x9d017ef4           0x7c         124   
.text.TCPIP_ARP_Handler 0x9d017f70           0x7c         124   
.text._TCPIPStackAnyNet 0x9d017fec           0x7c         124   
.text.fptoul            0x9d018068           0x7c         124   
.text.Arc4SetKey        0x9d0180e4           0x78         120   
.text.DRV_ETHPHY_Open   0x9d01815c           0x78         120   
.text._DRV_ETHPHY_NegRe 0x9d0181d4           0x78         120   
.text.TCPIP_UDP_Close   0x9d01824c           0x78         120   
.rodata                 0x9d0182c4           0x78         120  Read-only const 
.text._TCPIP_MacEventCB 0x9d01833c           0x78         120   
.text._DRV_ETHPHY_Setup 0x9d0183b4           0x74         116   
.text._DRV_ETHPHY_NegCo 0x9d018428           0x74         116   
.text._TcpSwapHeader    0x9d01849c           0x74         116   
.text.TCPIP_Helper_Stri 0x9d018510           0x74         116   
.text.TCPIP_Helper_Prot 0x9d018584           0x74         116   
.text.TCPIP_Helper_Prot 0x9d0185f8           0x74         116   
.text.TCPIP_Helper_Prot 0x9d01866c           0x74         116   
.text._TCPIPStackSignal 0x9d0186e0           0x74         116   
.text._TCPIP_PKT_Socket 0x9d018754           0x74         116   
.text.strncpy           0x9d0187c8           0x74         116   
.text._DRV_ETHPHY_LinkS 0x9d01883c           0x70         112   
.text.TCPIP_UDP_SocketN 0x9d0188ac           0x70         112   
.text._ARPSetEntry      0x9d01891c           0x70         112   
.text.PLIB_ETH_MACGetAd 0x9d01898c           0x70         112   
.text.Arc4Process       0x9d0189fc           0x6c         108   
.text._MacRxFreeCallbac 0x9d018a68           0x6c         108   
.text.TCPIP_TCP_Close   0x9d018ad4           0x6c         108   
.text._UDPClose         0x9d018b40           0x6c         108   
.text.TCPIP_ANNOUNCE_De 0x9d018bac           0x6c         108   
.text.TCPIP_Helper_Prot 0x9d018c18           0x6c         108   
.text.TCPIP_UDP_SignalH 0x9d018c84           0x68         104   
.text.TCPIP_ARP_HashEnt 0x9d018cec           0x68         104   
.text._ZCLLEnable       0x9d018d54           0x68         104   
.text.TCPIP_ZCLL_Enable 0x9d018dbc           0x68         104   
.text.TCPIP_STACK_IsBca 0x9d018e24           0x68         104   
.text._TCPIPStackModule 0x9d018e8c           0x68         104   
.text._sprintf_cdnopsux 0x9d018ef4           0x68         104   
.text.sprintf           0x9d018f5c           0x68         104   
.rodata                 0x9d018fc4           0x68         104  Read-only const 
.text.DRV_ETHPHY_SMISca 0x9d01902c           0x64         100   
.text.DRV_TMR_Start     0x9d019090           0x64         100   
.text.TCPIP_UDP_OpenCli 0x9d0190f4           0x64         100   
.text.TCPIP_UDP_GetIsRe 0x9d019158           0x64         100   
.text.TCPIP_ICMP_Deinit 0x9d0191bc           0x64         100   
.text.InitRng           0x9d019220           0x60          96   
.text.DRV_ETHMAC_PIC32M 0x9d019280           0x60          96   
.text.TCPIP_ARP_Callbac 0x9d0192e0           0x60          96   
.text.sitofp            0x9d019340           0x60          96   
.text.SYS_Tasks         0x9d0193a0           0x5c          92   
.text._DRV_ETHPHY_Setup 0x9d0193fc           0x5c          92   
.text._DRV_ETHPHY_Clien 0x9d019458           0x5c          92   
.text._DRV_ETHPHY_Clien 0x9d0194b4           0x5c          92   
.text._DRV_ETHPHY_Clien 0x9d019510           0x5c          92   
.text.DRV_ETHPHY_Negoti 0x9d01956c           0x5c          92   
.text._DRV_ETHPHY_Clien 0x9d0195c8           0x5c          92   
.text.DRV_ETHPHY_LinkSt 0x9d019624           0x5c          92   
.text._DRV_ETHPHY_Clien 0x9d019680           0x5c          92   
.text._DRV_ETHPHY_Clien 0x9d0196dc           0x5c          92   
.text.DRV_TMR_Open      0x9d019738           0x5c          92   
.text.fnv_32_hash       0x9d019794           0x5c          92   
.text.TCPIP_OAHASH_Entr 0x9d0197f0           0x5c          92   
.text.vsnprintf         0x9d01984c           0x5c          92   
.text.TCPIP_STACK_Init  0x9d0198a8           0x58          88   
.text.RNG_GenerateBlock 0x9d019900           0x58          88   
.text.DRV_ETHMAC_PIC32M 0x9d019958           0x58          88   
.text._MacTxDiscardQueu 0x9d0199b0           0x58          88   
.text.DRV_ETHPHY_Initia 0x9d019a08           0x58          88   
.text._DRV_ETHPHY_Clien 0x9d019a60           0x58          88   
.text.SYS_DEVCON_System 0x9d019ab8           0x58          88   
.text._TcpSocketKill    0x9d019b10           0x58          88   
.text._TCPSocketTxFreeS 0x9d019b68           0x58          88   
.text.TCPIP_ZCLL_Deinit 0x9d019bc0           0x58          88   
.text.TCPIP_STACK_NetBy 0x9d019c18           0x58          88   
.text.main_entry        0x9d019c70           0x54          84   
.text.DRV_ETHMAC_PIC32M 0x9d019cc4           0x54          84   
.text._DRV_ETHMAC_LinkS 0x9d019d18           0x54          84   
.text._EnetDescriptorsC 0x9d019d6c           0x54          84   
.text.SYS_INT_SourceDis 0x9d019dc0           0x54          84   
.text.SYS_TMR_ObjectDel 0x9d019e14           0x54          84   
.text._TCP_PortIsAvaila 0x9d019e68           0x54          84   
.text._TCPIP_AnnounceCl 0x9d019ebc           0x54          84   
.text.TCPIP_Notificatio 0x9d019f10           0x54          84   
.text._XtlEventsTcp2Eth 0x9d019f64           0x50          80   
.text.DRV_ETHPHY_HWConf 0x9d019fb4           0x50          80   
.text._DRV_ETHPHY_NegRe 0x9d01a004           0x50          80   
.text._DRV_ETHPHY_NegRe 0x9d01a054           0x50          80   
.text._TCPSetSourceAddr 0x9d01a0a4           0x50          80   
.text._TcpFlush         0x9d01a0f4           0x50          80   
.text._TCPSetHalfFlushF 0x9d01a144           0x50          80   
.text.TCPIP_NBNS_Deinit 0x9d01a194           0x50          80   
.text._ZCLLDisable      0x9d01a1e4           0x50          80   
.text.TCPIP_HEAP_Delete 0x9d01a234           0x50          80   
.text._TCPIPStackModule 0x9d01a284           0x50          80   
.text._TCPIP_PKT_Packet 0x9d01a2d4           0x50          80   
.text.sbrk              0x9d01a324           0x50          80   
.text._MACTxPacketAckCa 0x9d01a374           0x4c          76   
.text._DRV_ETHPHY_Setup 0x9d01a3c0           0x4c          76   
.text.DRV_ETHPHY_Negoti 0x9d01a40c           0x4c          76   
.text._DRV_PHY_NegCompl 0x9d01a458           0x4c          76   
.text.DRV_ETHPHY_Reset  0x9d01a4a4           0x4c          76   
.text._ARPRemoveCacheEn 0x9d01a4f0           0x4c          76   
.text.TCPIP_NBNS_Cleanu 0x9d01a53c           0x4c          76   
.text._TCPIP_HEAP_Callo 0x9d01a588           0x4c          76   
.text.TCPIP_STACK_MACId 0x9d01a5d4           0x4c          76   
.text.TCPIP_Notificatio 0x9d01a620           0x4c          76   
.text                   0x9d01a66c           0x4c          76  App's exec code 
.text._DRV_ETHPHY_Clien 0x9d01a6b8           0x48          72   
.text.DRV_ETHPHY_Restar 0x9d01a700           0x48          72   
.text._DRV_ETHPHY_NegRe 0x9d01a748           0x48          72   
.text.SYS_DEVCON_System 0x9d01a790           0x48          72   
.text.strupr            0x9d01a7d8           0x48          72   
.text._UDPIsAvailablePo 0x9d01a820           0x48          72   
.text.TCPIP_ARP_Handler 0x9d01a868           0x48          72   
.text.TCPIP_Helper_Sing 0x9d01a8b0           0x48          72   
.text.TCPIP_Helper_Prot 0x9d01a8f8           0x48          72   
.text.TCPIP_STACK_IPAdd 0x9d01a940           0x48          72   
.text.TCPIP_Notificatio 0x9d01a988           0x48          72   
.text._bootstrap_except 0x9d01a9d0           0x48          72   
.text._cache_err_except 0x9d01aa18           0x48          72   
.text._simple_tlb_refil 0x9d01aa60           0x48          72   
.text.DRV_ETHPHY_Tasks  0x9d01aaa8           0x44          68   
.text._SwapARPPacket    0x9d01aaec           0x44          68   
.text._TCPIP_STACK_Tick 0x9d01ab30           0x44          68   
.text.TCPIP_STACK_NetIs 0x9d01ab74           0x44          68   
.text.PLIB_ETH_RxSetBuf 0x9d01abb8           0x44          68   
.text                   0x9d01abfc           0x44          68  App's exec code 
.text.strcat            0x9d01ac40           0x44          68   
.text._DRV_ETHPHY_NegCo 0x9d01ac84           0x40          64   
.text.TCPIP_TCP_IsConne 0x9d01acc4           0x40          64   
.text.TCPIP_TCP_PutIsRe 0x9d01ad04           0x40          64   
.text._TCPIP_HEAP_DataC 0x9d01ad44           0x40          64   
.text.SYS_CLK_Periphera 0x9d01ad84           0x3c          60   
.text._general_exceptio 0x9d01adc0           0x3c          60   
.text._DRV_ETHMAC_LinkS 0x9d01adfc           0x3c          60   
.text.DRV_ETHMAC_Single 0x9d01ae38           0x3c          60   
.text.LFSRRand          0x9d01ae74           0x3c          60   
.text._TCPIsGetReady    0x9d01aeb0           0x3c          60   
.text._UDPTxPktValid    0x9d01aeec           0x3c          60   
.text._UDPFreeRxQueue   0x9d01af28           0x3c          60   
.text.TCPIP_ARP_Callbac 0x9d01af64           0x3c          60   
.text._ARPTxAckFnc      0x9d01afa0           0x3c          60   
.text.TCPIP_ARP_HashKey 0x9d01afdc           0x3c          60   
.text._ICMPAllocateTxPa 0x9d01b018           0x3c          60   
.text._ZCLLCleanup      0x9d01b054           0x3c          60   
.text.TCPIP_OAHASH_Init 0x9d01b090           0x3c          60   
.text.TCPIP_Helper_Sing 0x9d01b0cc           0x3c          60   
.text.TCPIP_Helper_Prot 0x9d01b108           0x3c          60   
.text._TCPIPStackSetCon 0x9d01b144           0x3c          60   
.text._TCPIPSignalEntry 0x9d01b180           0x3c          60   
.text._EthMacReset      0x9d01b1bc           0x38          56   
.text.DRV_ETHMAC_LibDes 0x9d01b1f4           0x38          56   
.text.DRV_ETHMAC_LibRxP 0x9d01b22c           0x38          56   
.text.DRV_ETHMAC_LibRxS 0x9d01b264           0x38          56   
.text.DRV_ETHMAC_LibTxP 0x9d01b29c           0x38          56   
.text._DRV_PHY_SMIReadS 0x9d01b2d4           0x38          56   
.text._DRV_PHY_SMIWrite 0x9d01b30c           0x38          56   
.text.DRV_ETHPHY_SMISta 0x9d01b344           0x38          56   
.text._DRV_ETHPHY_Reset 0x9d01b37c           0x38          56   
.text._ARPAllocateTxPac 0x9d01b3b4           0x38          56   
.text.TCPIP_STACK_Addre 0x9d01b3ec           0x38          56   
.text.SYS_INT_SourceRes 0x9d01b424           0x34          52   
.text.DRV_ETHMAC_LibTxA 0x9d01b458           0x34          52   
.text.DRV_ETHPHY_Client 0x9d01b48c           0x34          52   
.text.DRV_ETHPHY_PhyAdd 0x9d01b4c0           0x34          52   
.text._DRV_ETHPHY_NegRe 0x9d01b4f4           0x34          52   
.text._DRV_ETHPHY_NegCo 0x9d01b528           0x34          52   
.text._DRV_ETHPHY_NegRe 0x9d01b55c           0x34          52   
.text._DRV_ETHPHY_LinkS 0x9d01b590           0x34          52   
.text._TcpSocketChk     0x9d01b5c4           0x34          52   
.text.TCPIP_TCP_GetIsRe 0x9d01b5f8           0x34          52   
.text._UDPUpdatePacketL 0x9d01b62c           0x34          52   
.text._UDPSocketDcpt    0x9d01b660           0x34          52   
.text.TCPIP_Helper_Prot 0x9d01b694           0x34          52   
.text.TCPIP_STACK_NetAd 0x9d01b6c8           0x34          52   
.text.TCPIP_STACK_NetAd 0x9d01b6fc           0x34          52   
.text.TCPIP_STACK_Addre 0x9d01b730           0x34          52   
.text._TCPIPStackHandle 0x9d01b764           0x34          52   
.text.BSP_Initialize    0x9d01b798           0x30          48   
.text.CRYPT_RNG_Initial 0x9d01b7c8           0x30          48   
.text.DRV_ETHMAC_PIC32M 0x9d01b7f8           0x30          48   
.text._MacCallocCallbac 0x9d01b828           0x30          48   
.text.DRV_ETHMAC_Single 0x9d01b858           0x30          48   
.text.DRV_ETHPHY_Vendor 0x9d01b888           0x30          48   
.text.NBNSSocketRxSigna 0x9d01b8b8           0x30          48   
.text._TCPIP_AnnounceSo 0x9d01b8e8           0x30          48   
.text.TCPIP_Helper_Sing 0x9d01b918           0x30          48   
.text.TCPIP_STACK_NetAd 0x9d01b948           0x30          48   
.text.TCPIP_STACK_NetMa 0x9d01b978           0x30          48   
.text.TCPIP_STACK_Netwo 0x9d01b9a8           0x30          48   
.text._TCPIPStackModule 0x9d01b9d8           0x30          48   
.text.free              0x9d01ba08           0x30          48   
.text.DRV_ETHPHY_Reinit 0x9d01ba38           0x2c          44   
.text._SYS_TMR_AlarmCal 0x9d01ba64           0x2c          44   
.text.TCPIP_UDP_Discard 0x9d01ba90           0x2c          44   
.text.TCPIP_STACK_NetNa 0x9d01babc           0x2c          44   
.text.TCPIP_Notificatio 0x9d01bae8           0x2c          44   
.text._stub_sbd_memlayo 0x9d01bb14           0x2c          44   
.text._MacTxFreeCallbac 0x9d01bb40           0x28          40   
.text.TCPIP_UDP_Put     0x9d01bb68           0x28          40   
.rodata                 0x9d01bb90           0x28          40  Read-only const 
.text.TCPIP_STACK_Index 0x9d01bbb8           0x28          40   
.text.TCPIP_STACK_NetMA 0x9d01bbe0           0x28          40   
.text._TCPIPStackSignal 0x9d01bc08           0x28          40   
.text.PLIB_ETH_MACSetMa 0x9d01bc30           0x28          40   
.text.DRV_ETHMAC_PIC32M 0x9d01bc58           0x24          36   
.text.SYS_TMR_TickCount 0x9d01bc7c           0x24          36   
.text.SYS_TMR_TickCount 0x9d01bca0           0x24          36   
.text._TCP_TxPktValid   0x9d01bcc4           0x24          36   
.text.TCPIP_HEAP_FreeSi 0x9d01bce8           0x24          36   
.text._TCPIPSignalEntry 0x9d01bd0c           0x24          36   
.text.main              0x9d01bd30           0x20          32   
.text.DRV_ETHMAC_PIC32M 0x9d01bd50           0x20          32   
.text._DRV_ETHMAC_GetFr 0x9d01bd70           0x20          32   
.text._DRV_ETHMAC_GetFr 0x9d01bd90           0x20          32   
.text._DRV_ETHMAC_GetFr 0x9d01bdb0           0x20          32   
.text._DRV_ETHMAC_GetFr 0x9d01bdd0           0x20          32   
.text._DRV_ETHMAC_GetFr 0x9d01bdf0           0x20          32   
.text._DRV_ETHMAC_GetAl 0x9d01be10           0x20          32   
.text._DRV_ETHMAC_GetSC 0x9d01be30           0x20          32   
.text._DRV_ETHMAC_GetMC 0x9d01be50           0x20          32   
.text._DRV_ETHPHY_Clien 0x9d01be70           0x20          32   
.text.DRV_ETHPHY_Close  0x9d01be90           0x20          32   
.text.TCPIP_TCP_ArrayPu 0x9d01beb0           0x20          32   
.text.TCPIP_TCP_ArrayGe 0x9d01bed0           0x20          32   
.text.TCPIP_UDP_ServerO 0x9d01bef0           0x20          32   
.text.TCPIP_UDP_ClientO 0x9d01bf10           0x20          32   
.text.TCPIP_UDP_IsConne 0x9d01bf30           0x20          32   
.text.TCPIP_UDP_ArrayPu 0x9d01bf50           0x20          32   
.text.TCPIP_UDP_Get     0x9d01bf70           0x20          32   
.text.TCPIP_UDP_ArrayGe 0x9d01bf90           0x20          32   
.text._ICMPAckPacket    0x9d01bfb0           0x20          32   
.text.TCPIP_STACK_Statu 0x9d01bfd0           0x20          32   
.text.TCPIP_STACK_Addre 0x9d01bff0           0x20          32   
.text.PLIB_ETH_EventsGe 0x9d01c010           0x20          32   
.text._DRV_ETHPHY_Clien 0x9d01c030           0x1c          28   
.text.DRV_ETHPHY_Vendor 0x9d01c04c           0x1c          28   
.rodata                 0x9d01c068           0x1c          28  Read-only const 
.text.SYS_RANDOM_Pseudo 0x9d01c084           0x1c          28   
.text.SYS_TMR_CallbackS 0x9d01c0a0           0x1c          28   
.text.SYS_TMR_CallbackP 0x9d01c0bc           0x1c          28   
.text.TCPIP_UDP_TxPutIs 0x9d01c0d8           0x1c          28   
.text.TCPIP_OAHASH_Entr 0x9d01c0f4           0x1c          28   
.text.TCPIP_Helper_Chec 0x9d01c110           0x1c          28   
.text.TCPIP_Notificatio 0x9d01c12c           0x1c          28   
.text.PLIB_ETH_RxFilter 0x9d01c148           0x1c          28   
.text.PLIB_ETH_RxFilter 0x9d01c164           0x1c          28   
.text.PLIB_ETH_RxFilter 0x9d01c180           0x1c          28   
.text.srand             0x9d01c19c           0x1c          28   
.text.DRV_ETHPHY_Deinit 0x9d01c1b8           0x18          24   
.text.DRV_ETHPHY_Status 0x9d01c1d0           0x18          24   
.text.DRV_ETHPHY_Client 0x9d01c1e8           0x18          24   
.text.DRV_ETHPHY_Client 0x9d01c200           0x18          24   
.text.SYS_INT_Initializ 0x9d01c218           0x18          24   
.text.TCPIP_ARP_HashKey 0x9d01c230           0x18          24   
.text.TCPIP_STACK_NetIx 0x9d01c248           0x18          24   
.text.PLIB_ETH_EventsEn 0x9d01c260           0x18          24   
.text.PLIB_ETH_EventsEn 0x9d01c278           0x18          24   
.text.PLIB_ETH_EventsCl 0x9d01c290           0x18          24   
.text                   0x9d01c2a8           0x18          24  App's exec code 
.text.SYS_DEVCON_Initia 0x9d01c2c0           0x14          20   
.rodata                 0x9d01c2d4           0x10          16  Read-only const 
.text.TCPIP_ARP_HashKey 0x9d01c2e4           0x10          16   
.text.TCPIP_Helper_Sing 0x9d01c2f4           0x10          16   
.text.SYS_CLK_SystemFre 0x9d01c304            0xc          12   
.text.APP_Initialize    0x9d01c310            0xc          12   
.rodata                 0x9d01c31c            0xc          12  Read-only const 
.text.DRV_ETHMAC_PIC32M 0x9d01c328            0xc          12   
.text.DRV_EXTPHY_SMIClo 0x9d01c334            0xc          12   
.text.SYS_TMR_ModuleSta 0x9d01c340            0xc          12   
.text.TCPIP_STACK_Numbe 0x9d01c34c            0xc          12   
.text.TCPIP_STACK_NetBI 0x9d01c358            0xc          12   
.text.APP1_Initialize   0x9d01c364            0x8           8   
.text.APP2_Initialize   0x9d01c36c            0x8           8   
.text.DRV_ETHMAC_PIC32M 0x9d01c374            0x8           8   
.text.DRV_ETHMAC_PIC32M 0x9d01c37c            0x8           8   
.text._DRV_ETHPHY_Clien 0x9d01c384            0x8           8   
.text.DRV_TMR_Tasks     0x9d01c38c            0x8           8   
.text.SYS_DEVCON_Tasks  0x9d01c394            0x8           8   
.rodata                 0x9d01c39c           0x18          24  Read-only const 
.text.TCPIP_PKT_Deiniti 0x9d01c3b4            0x8           8   
.text._on_reset         0x9d01c3bc            0x8           8   
.text._on_bootstrap     0x9d01c3c4            0x8           8   
.rodata                 0x9d01c3cc            0x4           4  Read-only const 
      Total kseg0_program_mem used  :     0x1c3d0      115664  5.5% of 0x200000

kseg0 Boot-Memory Usage
section                    address  length [bytes]      (dec)  Description
-------                 ----------  -------------------------  -----------
         Total kseg0_boot_mem used  :           0           0  

kseg1 Boot-Memory Usage
section                    address  length [bytes]      (dec)  Description
-------                 ----------  -------------------------  -----------
.reset                  0xbfc00000          0x1fc         508  Reset handler 
.bev_excpt              0xbfc00380           0x10          16  BEV-Exception 
         Total kseg1_boot_mem used  :       0x20c         524  45.5% of 0x480
        --------------------------------------------------------------------------
         Total Program Memory used  :     0x1c5dc      116188  5.5% of 0x200480
        --------------------------------------------------------------------------


kseg0 Data-Memory Usage
section                    address  length [bytes]      (dec)  Description
-------                 ----------  -------------------------  -----------
.sdata                  0x80000000           0x60          96  Small init data 
.sbss                   0x80000060          0x168         360  Small uninit data 
.bss                    0x800001c8          0x3ac         940  Uninitialized data 
.bss                    0x80000974          0x2b4         692  Uninitialized data 
.bss.errno              0x80000c28            0x4           4   
.data                   0x80000c30          0x140         320  Initialized data 
.bss                    0x80000d70           0xe4         228  Uninitialized data 
.data                   0x80000e54           0x4c          76  Initialized data 
.bss                    0x80000ea0           0x80         128  Uninitialized data 
.data                   0x80000f20           0x24          36  Initialized data 
.bss                    0x80000f44           0xa8         168  Uninitialized data 
.data                   0x80000fec            0xc          12  Initialized data 
.bss.can_message_buffer 0x80000574          0x400        1024   
         Total kseg0_data_mem used  :       0xff4        4084  0.8% of 0x80000
        --------------------------------------------------------------------------
            Total Data Memory used  :       0xff4        4084  0.8% of 0x80000
        --------------------------------------------------------------------------


Dynamic Data-Memory Reservation
section                    address  length [bytes]      (dec)  Description
-------                 ----------  -------------------------  -----------
heap                    0x80001000         0xafa0       44960  Reserved for heap 
stack                   0x8000bfb8        0x74040      475200  Reserved for stack 

        --------------------------------------------------------------------------

Discarded input sections

 .text          0x00000000        0x0 c:/program files (x86)/microchip/xc32/v1.40/bin/bin/../../lib/gcc/pic32mx/4.8.3/../../../../pic32mx/lib/./proc/32MZ2048ECH144/crt0_mips32r2.o
 .data          0x00000000        0x0 c:/program files (x86)/microchip/xc32/v1.40/bin/bin/../../lib/gcc/pic32mx/4.8.3/../../../../pic32mx/lib/./proc/32MZ2048ECH144/crt0_mips32r2.o
 .bss           0x00000000        0x0 c:/program files (x86)/microchip/xc32/v1.40/bin/bin/../../lib/gcc/pic32mx/4.8.3/../../../../pic32mx/lib/./proc/32MZ2048ECH144/crt0_mips32r2.o
 .text          0x00000000        0x0 c:/program files (x86)/microchip/xc32/v1.40/bin/bin/../../lib/gcc/pic32mx/4.8.3/../../../../pic32mx/lib\debug-exception-return.o
 .data          0x00000000        0x0 c:/program files (x86)/microchip/xc32/v1.40/bin/bin/../../lib/gcc/pic32mx/4.8.3/../../../../pic32mx/lib\debug-exception-return.o
 .bss           0x00000000        0x0 c:/program files (x86)/microchip/xc32/v1.40/bin/bin/../../lib/gcc/pic32mx/4.8.3/../../../../pic32mx/lib\debug-exception-return.o
 .reginfo       0x00000000       0x18 c:/program files (x86)/microchip/xc32/v1.40/bin/bin/../../lib/gcc/pic32mx/4.8.3/../../../../pic32mx/lib\debug-exception-return.o
 .text          0x00000000        0x0 build/default/production/_ext/337818580/drv_can_static.o
 .data          0x00000000        0x0 build/default/production/_ext/337818580/drv_can_static.o
 .bss           0x00000000        0x0 build/default/production/_ext/337818580/drv_can_static.o
 .reginfo       0x00000000       0x18 build/default/production/_ext/337818580/drv_can_static.o
 .text.DRV_CAN0_DeInitialize
                0x00000000       0x40 build/default/production/_ext/337818580/drv_can_static.o
 .text.DRV_CAN0_Open
                0x00000000       0x18 build/default/production/_ext/337818580/drv_can_static.o
 .text.DRV_CAN0_Close
                0x00000000       0x18 build/default/production/_ext/337818580/drv_can_static.o
 .text.ChannelMessageReceive
                0x00000000       0xac build/default/production/_ext/337818580/drv_can_static.o
 .text          0x00000000        0x0 build/default/production/_ext/639803181/sys_clk_static.o
 .data          0x00000000        0x0 build/default/production/_ext/639803181/sys_clk_static.o
 .bss           0x00000000        0x0 build/default/production/_ext/639803181/sys_clk_static.o
 .reginfo       0x00000000       0x18 build/default/production/_ext/639803181/sys_clk_static.o
 .text.SYS_CLK_ReferenceClockFrequencyGet
                0x00000000        0x8 build/default/production/_ext/639803181/sys_clk_static.o
 .text          0x00000000        0x0 build/default/production/_ext/822048611/sys_ports_static.o
 .data          0x00000000        0x0 build/default/production/_ext/822048611/sys_ports_static.o
 .bss           0x00000000        0x0 build/default/production/_ext/822048611/sys_ports_static.o
 .reginfo       0x00000000       0x18 build/default/production/_ext/822048611/sys_ports_static.o
 .text          0x00000000        0x0 build/default/production/_ext/1688732426/system_init.o
 .data          0x00000000        0x0 build/default/production/_ext/1688732426/system_init.o
 .bss           0x00000000        0x0 build/default/production/_ext/1688732426/system_init.o
 .reginfo       0x00000000       0x18 build/default/production/_ext/1688732426/system_init.o
 .text          0x00000000        0x0 build/default/production/_ext/1688732426/system_interrupt.o
 .data          0x00000000        0x0 build/default/production/_ext/1688732426/system_interrupt.o
 .bss           0x00000000        0x0 build/default/production/_ext/1688732426/system_interrupt.o
 .reginfo       0x00000000       0x18 build/default/production/_ext/1688732426/system_interrupt.o
 .text          0x00000000        0x0 build/default/production/_ext/1688732426/system_exceptions.o
 .bss           0x00000000        0x0 build/default/production/_ext/1688732426/system_exceptions.o
 .reginfo       0x00000000       0x18 build/default/production/_ext/1688732426/system_exceptions.o
 .text          0x00000000        0x0 build/default/production/_ext/1688732426/system_tasks.o
 .data          0x00000000        0x0 build/default/production/_ext/1688732426/system_tasks.o
 .bss           0x00000000        0x0 build/default/production/_ext/1688732426/system_tasks.o
 .reginfo       0x00000000       0x18 build/default/production/_ext/1688732426/system_tasks.o
 .text          0x00000000        0x0 build/default/production/_ext/1360937237/app.o
 .data          0x00000000        0x0 build/default/production/_ext/1360937237/app.o
 .bss           0x00000000        0x0 build/default/production/_ext/1360937237/app.o
 .reginfo       0x00000000       0x18 build/default/production/_ext/1360937237/app.o
 .text.reverse_nibbles
                0x00000000       0x34 build/default/production/_ext/1360937237/app.o
 .text          0x00000000        0x0 build/default/production/_ext/1360937237/main.o
 .data          0x00000000        0x0 build/default/production/_ext/1360937237/main.o
 .bss           0x00000000        0x0 build/default/production/_ext/1360937237/main.o
 .reginfo       0x00000000       0x18 build/default/production/_ext/1360937237/main.o
 .text          0x00000000        0x0 build/default/production/_ext/1360937237/app1.o
 .data          0x00000000        0x0 build/default/production/_ext/1360937237/app1.o
 .bss           0x00000000        0x0 build/default/production/_ext/1360937237/app1.o
 .reginfo       0x00000000       0x18 build/default/production/_ext/1360937237/app1.o
 .text.Format_CAN_Data
                0x00000000       0xf8 build/default/production/_ext/1360937237/app1.o
 .text          0x00000000        0x0 build/default/production/_ext/1360937237/app2.o
 .data          0x00000000        0x0 build/default/production/_ext/1360937237/app2.o
 .bss           0x00000000        0x0 build/default/production/_ext/1360937237/app2.o
 .reginfo       0x00000000       0x18 build/default/production/_ext/1360937237/app2.o
 .text.Format_CAN_Data_UDP
                0x00000000       0xf8 build/default/production/_ext/1360937237/app2.o
 .text          0x00000000        0x0 build/default/production/_ext/660089376/bsp_sys_init.o
 .data          0x00000000        0x0 build/default/production/_ext/660089376/bsp_sys_init.o
 .bss           0x00000000        0x0 build/default/production/_ext/660089376/bsp_sys_init.o
 .reginfo       0x00000000       0x18 build/default/production/_ext/660089376/bsp_sys_init.o
 .text.BSP_LEDStateSet
                0x00000000       0x34 build/default/production/_ext/660089376/bsp_sys_init.o
 .text.BSP_LEDToggle
                0x00000000       0x1c build/default/production/_ext/660089376/bsp_sys_init.o
 .text.BSP_LEDStateGet
                0x00000000       0x20 build/default/production/_ext/660089376/bsp_sys_init.o
 .text.BSP_LEDOn
                0x00000000       0x1c build/default/production/_ext/660089376/bsp_sys_init.o
 .text.BSP_LEDOff
                0x00000000       0x1c build/default/production/_ext/660089376/bsp_sys_init.o
 .text.BSP_SwitchStateGet
                0x00000000       0x1c build/default/production/_ext/660089376/bsp_sys_init.o
 .text.BSP_USBVBUSPowerEnable
                0x00000000       0x28 build/default/production/_ext/660089376/bsp_sys_init.o
 .text.BSP_USBVBUSSwitchOverCurrentDetect
                0x00000000        0x8 build/default/production/_ext/660089376/bsp_sys_init.o
 .text          0x00000000        0x0 build/default/production/_ext/1886890887/random.o
 .data          0x00000000        0x0 build/default/production/_ext/1886890887/random.o
 .bss           0x00000000        0x0 build/default/production/_ext/1886890887/random.o
 .reginfo       0x00000000       0x18 build/default/production/_ext/1886890887/random.o
 .text.RNG_GenerateByte
                0x00000000       0x24 build/default/production/_ext/1886890887/random.o
 .text          0x00000000        0x0 build/default/production/_ext/1886890887/arc4.o
 .data          0x00000000        0x0 build/default/production/_ext/1886890887/arc4.o
 .bss           0x00000000        0x0 build/default/production/_ext/1886890887/arc4.o
 .reginfo       0x00000000       0x18 build/default/production/_ext/1886890887/arc4.o
 .text          0x00000000        0x0 build/default/production/_ext/1886890887/crypto.o
 .data          0x00000000        0x0 build/default/production/_ext/1886890887/crypto.o
 .bss           0x00000000        0x0 build/default/production/_ext/1886890887/crypto.o
 .reginfo       0x00000000       0x18 build/default/production/_ext/1886890887/crypto.o
 .text.CRYPT_RNG_Get
                0x00000000       0x4c build/default/production/_ext/1886890887/crypto.o
 .text.CRYPT_RNG_BlockGenerate
                0x00000000       0x44 build/default/production/_ext/1886890887/crypto.o
 .text.CRYPT_TDES_KeySet
                0x00000000       0x44 build/default/production/_ext/1886890887/crypto.o
 .text.CRYPT_TDES_IvSet
                0x00000000       0x44 build/default/production/_ext/1886890887/crypto.o
 .text.CRYPT_TDES_CBC_Encrypt
                0x00000000       0x54 build/default/production/_ext/1886890887/crypto.o
 .text.CRYPT_TDES_CBC_Decrypt
                0x00000000       0x54 build/default/production/_ext/1886890887/crypto.o
 .text.CRYPT_ERROR_StringGet
                0x00000000       0x34 build/default/production/_ext/1886890887/crypto.o
 .text          0x00000000        0x0 build/default/production/_ext/1908841681/drv_ethmac.o
 .bss           0x00000000        0x0 build/default/production/_ext/1908841681/drv_ethmac.o
 .reginfo       0x00000000       0x18 build/default/production/_ext/1908841681/drv_ethmac.o
 .text          0x00000000        0x0 build/default/production/_ext/1908841681/drv_ethmac_lib.o
 .data          0x00000000        0x0 build/default/production/_ext/1908841681/drv_ethmac_lib.o
 .bss           0x00000000        0x0 build/default/production/_ext/1908841681/drv_ethmac_lib.o
 .reginfo       0x00000000       0x18 build/default/production/_ext/1908841681/drv_ethmac_lib.o
 .text.DRV_ETHMAC_LibDescriptorsPoolRemove
                0x00000000       0xc4 build/default/production/_ext/1908841681/drv_ethmac_lib.o
 .text.DRV_ETHMAC_LibTxSendBuffer
                0x00000000       0xec build/default/production/_ext/1908841681/drv_ethmac_lib.o
 .text.DRV_ETHMAC_LibTxGetBufferStatus
                0x00000000       0x84 build/default/production/_ext/1908841681/drv_ethmac_lib.o
 .text.DRV_ETHMAC_LibRxGetBuffer
                0x00000000       0x3c build/default/production/_ext/1908841681/drv_ethmac_lib.o
 .text          0x00000000        0x0 build/default/production/_ext/732687875/drv_ethphy.o
 .data          0x00000000        0x0 build/default/production/_ext/732687875/drv_ethphy.o
 .bss           0x00000000        0x0 build/default/production/_ext/732687875/drv_ethphy.o
 .reginfo       0x00000000       0x18 build/default/production/_ext/732687875/drv_ethphy.o
 .text          0x00000000        0x0 build/default/production/_ext/732687875/drv_extphy_smsc8740.o
 .data          0x00000000        0x0 build/default/production/_ext/732687875/drv_extphy_smsc8740.o
 .bss           0x00000000        0x0 build/default/production/_ext/732687875/drv_extphy_smsc8740.o
 .reginfo       0x00000000       0x18 build/default/production/_ext/732687875/drv_extphy_smsc8740.o
 .text          0x00000000        0x0 build/default/production/_ext/185269848/drv_tmr.o
 .data          0x00000000        0x0 build/default/production/_ext/185269848/drv_tmr.o
 .reginfo       0x00000000       0x18 build/default/production/_ext/185269848/drv_tmr.o
 .text.DRV_TMR_Deinitialize
                0x00000000       0x5c build/default/production/_ext/185269848/drv_tmr.o
 .text.DRV_TMR_Status
                0x00000000       0x28 build/default/production/_ext/185269848/drv_tmr.o
 .text.DRV_TMR_Close
                0x00000000       0x48 build/default/production/_ext/185269848/drv_tmr.o
 .text.DRV_TMR_ClientStatus
                0x00000000       0x44 build/default/production/_ext/185269848/drv_tmr.o
 .text.DRV_TMR_CounterValue16BitSet
                0x00000000      0x110 build/default/production/_ext/185269848/drv_tmr.o
 .text.DRV_TMR_CounterValue32BitSet
                0x00000000       0xd8 build/default/production/_ext/185269848/drv_tmr.o
 .text.DRV_TMR_CounterValueSet
                0x00000000      0x1b8 build/default/production/_ext/185269848/drv_tmr.o
 .text.DRV_TMR_CounterValue16BitGet
                0x00000000      0x12c build/default/production/_ext/185269848/drv_tmr.o
 .text.DRV_TMR_CounterValue32BitGet
                0x00000000       0xf4 build/default/production/_ext/185269848/drv_tmr.o
 .text.DRV_TMR_CounterValueGet
                0x00000000      0x1d4 build/default/production/_ext/185269848/drv_tmr.o
 .text.DRV_TMR_CounterClear
                0x00000000      0x1a8 build/default/production/_ext/185269848/drv_tmr.o
 .text.DRV_TMR_Alarm32BitRegister
                0x00000000       0xec build/default/production/_ext/185269848/drv_tmr.o
 .text.DRV_TMR_AlarmRegister
                0x00000000      0x210 build/default/production/_ext/185269848/drv_tmr.o
 .text.DRV_TMR_AlarmDisable
                0x00000000       0x64 build/default/production/_ext/185269848/drv_tmr.o
 .text.DRV_TMR_AlarmEnable
                0x00000000       0x60 build/default/production/_ext/185269848/drv_tmr.o
 .text.DRV_TMR_AlarmPeriod16BitSet
                0x00000000      0x154 build/default/production/_ext/185269848/drv_tmr.o
 .text.DRV_TMR_AlarmPeriod32BitSet
                0x00000000       0xac build/default/production/_ext/185269848/drv_tmr.o
 .text.DRV_TMR_AlarmPeriodSet
                0x00000000      0x184 build/default/production/_ext/185269848/drv_tmr.o
 .text.DRV_TMR_AlarmPeriod16BitGet
                0x00000000       0x4c build/default/production/_ext/185269848/drv_tmr.o
 .text.DRV_TMR_AlarmPeriod32BitGet
                0x00000000       0x4c build/default/production/_ext/185269848/drv_tmr.o
 .text.DRV_TMR_AlarmPeriodGet
                0x00000000       0x3c build/default/production/_ext/185269848/drv_tmr.o
 .text.DRV_TMR_Alarm16BitDeregister
                0x00000000       0x74 build/default/production/_ext/185269848/drv_tmr.o
 .text.DRV_TMR_Alarm32BitDeregister
                0x00000000       0x74 build/default/production/_ext/185269848/drv_tmr.o
 .text.DRV_TMR_AlarmDeregister
                0x00000000       0x60 build/default/production/_ext/185269848/drv_tmr.o
 .text.DRV_TMR_Stop
                0x00000000       0x80 build/default/production/_ext/185269848/drv_tmr.o
 .text.DRV_TMR_AlarmHasElapsed
                0x00000000       0x3c build/default/production/_ext/185269848/drv_tmr.o
 .text.DRV_TMR_OperationModeGet
                0x00000000       0x3c build/default/production/_ext/185269848/drv_tmr.o
 .text.DRV_TMR_DividerRangeGet
                0x00000000       0x74 build/default/production/_ext/185269848/drv_tmr.o
 .text.DRV_TMR_GateModeSet
                0x00000000      0x198 build/default/production/_ext/185269848/drv_tmr.o
 .text.DRV_TMR_GateModeClear
                0x00000000      0x198 build/default/production/_ext/185269848/drv_tmr.o
 .text.DRV_TMR_ClockSet
                0x00000000       0xe4 build/default/production/_ext/185269848/drv_tmr.o
 .text.DRV_TMR_PrescalerGet
                0x00000000      0x2a8 build/default/production/_ext/185269848/drv_tmr.o
 .text          0x00000000        0x0 build/default/production/_ext/1271179505/sys_devcon.o
 .data          0x00000000        0x0 build/default/production/_ext/1271179505/sys_devcon.o
 .bss           0x00000000        0x0 build/default/production/_ext/1271179505/sys_devcon.o
 .reginfo       0x00000000       0x18 build/default/production/_ext/1271179505/sys_devcon.o
 .text.SYS_DEVCON_Reinitialize
                0x00000000       0x10 build/default/production/_ext/1271179505/sys_devcon.o
 .text.SYS_DEVCON_Deinitialize
                0x00000000        0x8 build/default/production/_ext/1271179505/sys_devcon.o
 .text.SYS_DEVCON_Status
                0x00000000        0x8 build/default/production/_ext/1271179505/sys_devcon.o
 .text.SYS_DEVCON_JTAGEnable
                0x00000000       0x18 build/default/production/_ext/1271179505/sys_devcon.o
 .text.SYS_DEVCON_JTAGDisable
                0x00000000       0x1c build/default/production/_ext/1271179505/sys_devcon.o
 .text.SYS_DEVCON_TraceEnable
                0x00000000       0x18 build/default/production/_ext/1271179505/sys_devcon.o
 .text.SYS_DEVCON_TraceDisable
                0x00000000       0x18 build/default/production/_ext/1271179505/sys_devcon.o
 .text.SYS_DEVCON_PowerModeEnter
                0x00000000       0x54 build/default/production/_ext/1271179505/sys_devcon.o
 .text          0x00000000        0x0 build/default/production/_ext/1271179505/sys_devcon_pic32mz.o
 .data          0x00000000        0x0 build/default/production/_ext/1271179505/sys_devcon_pic32mz.o
 .bss           0x00000000        0x0 build/default/production/_ext/1271179505/sys_devcon_pic32mz.o
 .reginfo       0x00000000       0x18 build/default/production/_ext/1271179505/sys_devcon_pic32mz.o
 .text.SYS_DEVCON_CacheInit
                0x00000000       0x24 build/default/production/_ext/1271179505/sys_devcon_pic32mz.o
 .text.SYS_DEVCON_CacheFlush
                0x00000000       0x24 build/default/production/_ext/1271179505/sys_devcon_pic32mz.o
 .text.SYS_DEVCON_DataCacheFlush
                0x00000000       0x24 build/default/production/_ext/1271179505/sys_devcon_pic32mz.o
 .text.SYS_DEVCON_InstructionCacheFlush
                0x00000000       0x24 build/default/production/_ext/1271179505/sys_devcon_pic32mz.o
 .text.SYS_DEVCON_CacheClean
                0x00000000       0x24 build/default/production/_ext/1271179505/sys_devcon_pic32mz.o
 .text.SYS_DEVCON_DataCacheClean
                0x00000000       0x24 build/default/production/_ext/1271179505/sys_devcon_pic32mz.o
 .text.SYS_DEVCON_DataCacheInvalidate
                0x00000000       0x24 build/default/production/_ext/1271179505/sys_devcon_pic32mz.o
 .text.SYS_DEVCON_InstructionCacheInvalidate
                0x00000000       0x24 build/default/production/_ext/1271179505/sys_devcon_pic32mz.o
 .text.SYS_DEVCON_InstructionCacheLock
                0x00000000       0x24 build/default/production/_ext/1271179505/sys_devcon_pic32mz.o
 .text.SYS_DEVCON_DataCacheLock
                0x00000000       0x24 build/default/production/_ext/1271179505/sys_devcon_pic32mz.o
 .text.SYS_DEVCON_CacheSync
                0x00000000       0x24 build/default/production/_ext/1271179505/sys_devcon_pic32mz.o
 .text.SYS_DEVCON_CacheCoherencySet
                0x00000000       0x2c build/default/production/_ext/1271179505/sys_devcon_pic32mz.o
 .text.SYS_DEVCON_CacheCoherencyGet
                0x00000000       0x1c build/default/production/_ext/1271179505/sys_devcon_pic32mz.o
 .text.SYS_DEVCON_DataCacheAssociativityGet
                0x00000000       0x24 build/default/production/_ext/1271179505/sys_devcon_pic32mz.o
 .text.SYS_DEVCON_InstructionCacheAssociativityGet
                0x00000000       0x24 build/default/production/_ext/1271179505/sys_devcon_pic32mz.o
 .text.SYS_DEVCON_DataCacheLineSizeGet
                0x00000000       0x24 build/default/production/_ext/1271179505/sys_devcon_pic32mz.o
 .text.SYS_DEVCON_InstructionCacheLineSizeGet
                0x00000000       0x24 build/default/production/_ext/1271179505/sys_devcon_pic32mz.o
 .text.SYS_DEVCON_DataCacheLinesPerWayGet
                0x00000000       0x24 build/default/production/_ext/1271179505/sys_devcon_pic32mz.o
 .text.SYS_DEVCON_InstructionCacheLinesPerWayGet
                0x00000000       0x24 build/default/production/_ext/1271179505/sys_devcon_pic32mz.o
 .text.SYS_DEVCON_DataCacheSizeGet
                0x00000000       0x24 build/default/production/_ext/1271179505/sys_devcon_pic32mz.o
 .text.SYS_DEVCON_InstructionCacheSizeGet
                0x00000000       0x24 build/default/production/_ext/1271179505/sys_devcon_pic32mz.o
 .text          0x00000000      0x6bc build/default/production/_ext/1271179505/sys_devcon_cache_pic32mz.o
 .data          0x00000000        0x0 build/default/production/_ext/1271179505/sys_devcon_cache_pic32mz.o
 .bss           0x00000000        0x0 build/default/production/_ext/1271179505/sys_devcon_cache_pic32mz.o
 .reginfo       0x00000000       0x18 build/default/production/_ext/1271179505/sys_devcon_cache_pic32mz.o
 .debug_line    0x00000000      0x20f build/default/production/_ext/1271179505/sys_devcon_cache_pic32mz.o
 .debug_info    0x00000000       0xa7 build/default/production/_ext/1271179505/sys_devcon_cache_pic32mz.o
 .debug_abbrev  0x00000000       0x14 build/default/production/_ext/1271179505/sys_devcon_cache_pic32mz.o
 .debug_aranges
                0x00000000       0x20 build/default/production/_ext/1271179505/sys_devcon_cache_pic32mz.o
 .text          0x00000000        0x0 build/default/production/_ext/122796885/sys_int_pic32.o
 .data          0x00000000        0x0 build/default/production/_ext/122796885/sys_int_pic32.o
 .bss           0x00000000        0x0 build/default/production/_ext/122796885/sys_int_pic32.o
 .reginfo       0x00000000       0x18 build/default/production/_ext/122796885/sys_int_pic32.o
 .text.SYS_INT_StatusGetAndDisable
                0x00000000       0x1c build/default/production/_ext/122796885/sys_int_pic32.o
 .text.SYS_INT_StatusRestore
                0x00000000       0x1c build/default/production/_ext/122796885/sys_int_pic32.o
 .text.SYS_INT_Disable
                0x00000000       0x20 build/default/production/_ext/122796885/sys_int_pic32.o
 .text.SYS_INT_ExternalInterruptTriggerSet
                0x00000000       0x34 build/default/production/_ext/122796885/sys_int_pic32.o
 .text          0x00000000        0x0 build/default/production/_ext/77319752/sys_ports.o
 .data          0x00000000        0x0 build/default/production/_ext/77319752/sys_ports.o
 .bss           0x00000000        0x0 build/default/production/_ext/77319752/sys_ports.o
 .reginfo       0x00000000       0x18 build/default/production/_ext/77319752/sys_ports.o
 .text.SYS_PORTS_Read
                0x00000000       0x34 build/default/production/_ext/77319752/sys_ports.o
 .text.SYS_PORTS_Write
                0x00000000       0x2c build/default/production/_ext/77319752/sys_ports.o
 .text.SYS_PORTS_Set
                0x00000000       0x38 build/default/production/_ext/77319752/sys_ports.o
 .text.SYS_PORTS_Clear
                0x00000000       0x34 build/default/production/_ext/77319752/sys_ports.o
 .text.SYS_PORTS_DirectionSelect
                0x00000000       0x6c build/default/production/_ext/77319752/sys_ports.o
 .text.SYS_PORTS_DirectionGet
                0x00000000       0x34 build/default/production/_ext/77319752/sys_ports.o
 .text.SYS_PORTS_Toggle
                0x00000000       0x34 build/default/production/_ext/77319752/sys_ports.o
 .text.SYS_PORTS_OpenDrainEnable
                0x00000000       0x34 build/default/production/_ext/77319752/sys_ports.o
 .text.SYS_PORTS_OpenDrainDisable
                0x00000000       0x34 build/default/production/_ext/77319752/sys_ports.o
 .text.SYS_PORTS_ChangeNotificationGlobalEnable
                0x00000000        0x8 build/default/production/_ext/77319752/sys_ports.o
 .text.SYS_PORTS_GlobalChangeNotificationDisable
                0x00000000        0x8 build/default/production/_ext/77319752/sys_ports.o
 .text.SYS_PORTS_ChangeNotificationEnable
                0x00000000        0x8 build/default/production/_ext/77319752/sys_ports.o
 .text.SYS_PORTS_ChangeNotificationDisable
                0x00000000        0x8 build/default/production/_ext/77319752/sys_ports.o
 .text.SYS_PORTS_ChangeNotificationInIdleModeEnable
                0x00000000        0x8 build/default/production/_ext/77319752/sys_ports.o
 .text.SYS_PORTS_ChangeNotificationInIdleModeDisable
                0x00000000        0x8 build/default/production/_ext/77319752/sys_ports.o
 .text.SYS_PORTS_ChangeNotificationPullUpEnable
                0x00000000        0x8 build/default/production/_ext/77319752/sys_ports.o
 .text.SYS_PORTS_ChangeNotificationPullUpDisable
                0x00000000        0x8 build/default/production/_ext/77319752/sys_ports.o
 .text.SYS_PORTS_PinModeSelect
                0x00000000       0x68 build/default/production/_ext/77319752/sys_ports.o
 .text.SYS_PORTS_PinWrite
                0x00000000       0x4c build/default/production/_ext/77319752/sys_ports.o
 .text.SYS_PORTS_PinRead
                0x00000000       0x40 build/default/production/_ext/77319752/sys_ports.o
 .text.SYS_PORTS_PinToggle
                0x00000000       0x38 build/default/production/_ext/77319752/sys_ports.o
 .text.SYS_PORTS_PinSet
                0x00000000       0x38 build/default/production/_ext/77319752/sys_ports.o
 .text.SYS_PORTS_PinClear
                0x00000000       0x38 build/default/production/_ext/77319752/sys_ports.o
 .text.SYS_PORTS_PinDirectionSelect
                0x00000000       0x78 build/default/production/_ext/77319752/sys_ports.o
 .text.SYS_PORTS_PinOpenDrainEnable
                0x00000000       0x38 build/default/production/_ext/77319752/sys_ports.o
 .text.SYS_PORTS_PinOpenDrainDisable
                0x00000000       0x38 build/default/production/_ext/77319752/sys_ports.o
 .text.SYS_PORTS_RemapInput
                0x00000000       0x64 build/default/production/_ext/77319752/sys_ports.o
 .text.SYS_PORTS_RemapOutput
                0x00000000       0x70 build/default/production/_ext/77319752/sys_ports.o
 .text          0x00000000        0x0 build/default/production/_ext/1283840359/sys_random.o
 .data          0x00000000        0x0 build/default/production/_ext/1283840359/sys_random.o
 .reginfo       0x00000000       0x18 build/default/production/_ext/1283840359/sys_random.o
 .text.SYS_RANDOM_Deinitialize
                0x00000000        0xc build/default/production/_ext/1283840359/sys_random.o
 .text.SYS_RANDOM_PseudoSeedSet
                0x00000000       0x1c build/default/production/_ext/1283840359/sys_random.o
 .text.SYS_RANDOM_CryptoSeedSet
                0x00000000        0x8 build/default/production/_ext/1283840359/sys_random.o
 .text.SYS_RANDOM_CryptoSeedSizeGet
                0x00000000       0x24 build/default/production/_ext/1283840359/sys_random.o
 .text.SYS_RANDOM_CryptoGet
                0x00000000       0x2c build/default/production/_ext/1283840359/sys_random.o
 .text.SYS_RANDOM_CryptoBlockGet
                0x00000000       0x38 build/default/production/_ext/1283840359/sys_random.o
 .text.SYS_RANDOM_CryptoByteGet
                0x00000000       0x28 build/default/production/_ext/1283840359/sys_random.o
 .text.SYS_RANDOM_CryptoEntropyAdd
                0x00000000        0x8 build/default/production/_ext/1283840359/sys_random.o
 .text          0x00000000        0x0 build/default/production/_ext/1264926591/sys_tmr.o
 .data          0x00000000        0x0 build/default/production/_ext/1264926591/sys_tmr.o
 .reginfo       0x00000000       0x18 build/default/production/_ext/1264926591/sys_tmr.o
 .text.SYS_TMR_Deinitialize
                0x00000000       0xb8 build/default/production/_ext/1264926591/sys_tmr.o
 .text.SYS_TMR_Status
                0x00000000        0xc build/default/production/_ext/1264926591/sys_tmr.o
 .text.SYS_TMR_ObjectCreate
                0x00000000       0x1c build/default/production/_ext/1264926591/sys_tmr.o
 .text.SYS_TMR_ObjectReload
                0x00000000       0xb4 build/default/production/_ext/1264926591/sys_tmr.o
 .text.SYS_TMR_ObjectCountGet
                0x00000000       0xe4 build/default/production/_ext/1264926591/sys_tmr.o
 .text.SYS_TMR_CallbackSingle
                0x00000000       0x1c build/default/production/_ext/1264926591/sys_tmr.o
 .text.SYS_TMR_DelayMS
                0x00000000       0x24 build/default/production/_ext/1264926591/sys_tmr.o
 .text.SYS_TMR_DelayStatusGet
                0x00000000       0x20 build/default/production/_ext/1264926591/sys_tmr.o
 .text.SYS_TMR_SystemCountFrequencyGet
                0x00000000       0x24 build/default/production/_ext/1264926591/sys_tmr.o
 .text.SYS_TMR_SystemCountGet
                0x00000000       0x80 build/default/production/_ext/1264926591/sys_tmr.o
 .text          0x00000000        0x0 build/default/production/_ext/1136935090/big_int.o
 .data          0x00000000        0x0 build/default/production/_ext/1136935090/big_int.o
 .bss           0x00000000        0x0 build/default/production/_ext/1136935090/big_int.o
 .reginfo       0x00000000       0x18 build/default/production/_ext/1136935090/big_int.o
 .text.BigInt   0x00000000       0x2c build/default/production/_ext/1136935090/big_int.o
 .text.BigIntZero
                0x00000000       0x44 build/default/production/_ext/1136935090/big_int.o
 .text.BigIntMod
                0x00000000      0x170 build/default/production/_ext/1136935090/big_int.o
 .text.BigIntCompare
                0x00000000       0xc4 build/default/production/_ext/1136935090/big_int.o
 .text.BigIntMagnitudeDifference
                0x00000000       0x3c build/default/production/_ext/1136935090/big_int.o
 .text.BigIntMagnitude
                0x00000000       0x30 build/default/production/_ext/1136935090/big_int.o
 .text.BigIntMSB
                0x00000000       0x74 build/default/production/_ext/1136935090/big_int.o
 .text.BigIntMultiply
                0x00000000       0x78 build/default/production/_ext/1136935090/big_int.o
 .text.BigIntSquare
                0x00000000       0x58 build/default/production/_ext/1136935090/big_int.o
 .text.BigIntAdd
                0x00000000       0x4c build/default/production/_ext/1136935090/big_int.o
 .text.BigIntSubtract
                0x00000000       0x4c build/default/production/_ext/1136935090/big_int.o
 .text.BigIntCopy
                0x00000000       0x48 build/default/production/_ext/1136935090/big_int.o
 .text.BigIntSwapEndianness
                0x00000000       0x44 build/default/production/_ext/1136935090/big_int.o
 .text          0x00000000      0x38c build/default/production/_ext/1136935090/big_int_helper_c32.o
 .data          0x00000000        0x0 build/default/production/_ext/1136935090/big_int_helper_c32.o
 .bss           0x00000000        0x0 build/default/production/_ext/1136935090/big_int_helper_c32.o
 .reginfo       0x00000000       0x18 build/default/production/_ext/1136935090/big_int_helper_c32.o
 .text          0x00000000        0x0 build/default/production/_ext/1136935090/hashes.o
 .data          0x00000000        0x0 build/default/production/_ext/1136935090/hashes.o
 .bss           0x00000000        0x0 build/default/production/_ext/1136935090/hashes.o
 .reginfo       0x00000000       0x18 build/default/production/_ext/1136935090/hashes.o
 .text.HashAddData
                0x00000000       0x44 build/default/production/_ext/1136935090/hashes.o
 .rodata        0x00000000      0x140 build/default/production/_ext/1136935090/hashes.o
 .text.MD5Initialize
                0x00000000       0x3c build/default/production/_ext/1136935090/hashes.o
 .text.MD5AddData
                0x00000000       0xe0 build/default/production/_ext/1136935090/hashes.o
 .text.MD5HashBlock
                0x00000000      0x170 build/default/production/_ext/1136935090/hashes.o
 .text.MD5Calculate
                0x00000000      0x20c build/default/production/_ext/1136935090/hashes.o
 .text.SHA1Initialize
                0x00000000       0x4c build/default/production/_ext/1136935090/hashes.o
 .text.SHA1AddData
                0x00000000       0xe8 build/default/production/_ext/1136935090/hashes.o
 .text.SHA1HashBlock
                0x00000000      0x2a4 build/default/production/_ext/1136935090/hashes.o
 .text.SHA1Calculate
                0x00000000      0x288 build/default/production/_ext/1136935090/hashes.o
 COMMON         0x00000000       0x40 build/default/production/_ext/1136935090/hashes.o
 .text          0x00000000        0x0 build/default/production/_ext/1136935090/helpers.o
 .data          0x00000000        0x0 build/default/production/_ext/1136935090/helpers.o
 .bss           0x00000000        0x0 build/default/production/_ext/1136935090/helpers.o
 .reginfo       0x00000000       0x18 build/default/production/_ext/1136935090/helpers.o
 .text.uitoa    0x00000000       0x94 build/default/production/_ext/1136935090/helpers.o
 .text.btohexa_high
                0x00000000       0x1c build/default/production/_ext/1136935090/helpers.o
 .text.btohexa_low
                0x00000000       0x1c build/default/production/_ext/1136935090/helpers.o
 .text.strnchr  0x00000000       0x40 build/default/production/_ext/1136935090/helpers.o
 .text.strncpy_m
                0x00000000       0xd8 build/default/production/_ext/1136935090/helpers.o
 .text.stricmppgm2ram
                0x00000000       0xa0 build/default/production/_ext/1136935090/helpers.o
 .text          0x00000000        0x0 build/default/production/_ext/1136935090/lfsr.o
 .data          0x00000000        0x0 build/default/production/_ext/1136935090/lfsr.o
 .bss           0x00000000        0x0 build/default/production/_ext/1136935090/lfsr.o
 .reginfo       0x00000000       0x18 build/default/production/_ext/1136935090/lfsr.o
 .text.LFSRSeedRand
                0x00000000       0x4c build/default/production/_ext/1136935090/lfsr.o
 .text          0x00000000        0x0 build/default/production/_ext/1408260596/tcp.o
 .data          0x00000000        0x0 build/default/production/_ext/1408260596/tcp.o
 .bss           0x00000000        0x0 build/default/production/_ext/1408260596/tcp.o
 .reginfo       0x00000000       0x18 build/default/production/_ext/1408260596/tcp.o
 .text.TCPIP_TCP_ConnectionSetToMSS
                0x00000000       0x10 build/default/production/_ext/1408260596/tcp.o
 .text.TCPIP_TCP_ClientOpen
                0x00000000       0x3c build/default/production/_ext/1408260596/tcp.o
 .text.TCPIP_TCP_WasReset
                0x00000000       0x48 build/default/production/_ext/1408260596/tcp.o
 .text.TCPIP_TCP_Disconnect
                0x00000000       0x3c build/default/production/_ext/1408260596/tcp.o
 .text.TCPIP_TCP_Abort
                0x00000000       0x3c build/default/production/_ext/1408260596/tcp.o
 .text.TCPIP_TCP_Connect
                0x00000000       0x64 build/default/production/_ext/1408260596/tcp.o
 .text.TCPIP_TCP_SocketInfoGet
                0x00000000       0x70 build/default/production/_ext/1408260596/tcp.o
 .text.TCPIP_TCP_SocketsNumberGet
                0x00000000        0x8 build/default/production/_ext/1408260596/tcp.o
 .text.TCPIP_TCP_Flush
                0x00000000       0x50 build/default/production/_ext/1408260596/tcp.o
 .text.TCPIP_TCP_Put
                0x00000000       0x28 build/default/production/_ext/1408260596/tcp.o
 .text.TCPIP_TCP_StringPut
                0x00000000       0x48 build/default/production/_ext/1408260596/tcp.o
 .text.TCPIP_TCP_FifoTxFullGet
                0x00000000       0x68 build/default/production/_ext/1408260596/tcp.o
 .text.TCPIP_TCP_FifoTxFreeGet
                0x00000000       0x54 build/default/production/_ext/1408260596/tcp.o
 .text.TCPIP_TCP_Discard
                0x00000000       0x64 build/default/production/_ext/1408260596/tcp.o
 .text.TCPIP_TCP_Get
                0x00000000       0x20 build/default/production/_ext/1408260596/tcp.o
 .text.TCPIP_TCP_FifoRxFreeGet
                0x00000000       0x50 build/default/production/_ext/1408260596/tcp.o
 .text.TCPIP_TCP_ArrayPeek
                0x00000000       0xe8 build/default/production/_ext/1408260596/tcp.o
 .text.TCPIP_TCP_Peek
                0x00000000       0x2c build/default/production/_ext/1408260596/tcp.o
 .text.TCPIP_TCP_ArrayFind
                0x00000000      0x3a0 build/default/production/_ext/1408260596/tcp.o
 .text.TCPIP_TCP_Find
                0x00000000       0x40 build/default/production/_ext/1408260596/tcp.o
 .text.TCPIP_TCP_FifoSizeAdjust
                0x00000000      0x4ac build/default/production/_ext/1408260596/tcp.o
 .text.TCPIP_TCP_SocketNetSet
                0x00000000       0x4c build/default/production/_ext/1408260596/tcp.o
 .text.TCPIP_TCP_SocketNetGet
                0x00000000       0x28 build/default/production/_ext/1408260596/tcp.o
 .text.TCPIP_TCP_Bind
                0x00000000      0x138 build/default/production/_ext/1408260596/tcp.o
 .text.TCPIP_TCP_RemoteBind
                0x00000000       0x8c build/default/production/_ext/1408260596/tcp.o
 .text.TCPIP_TCP_OptionsSet
                0x00000000      0x17c build/default/production/_ext/1408260596/tcp.o
 .text.TCPIP_TCP_OptionsGet
                0x00000000      0x144 build/default/production/_ext/1408260596/tcp.o
 .text.TCPIP_TCP_DestinationIPAddressSet
                0x00000000       0x78 build/default/production/_ext/1408260596/tcp.o
 .text.TCPIP_TCP_SourceIPAddressSet
                0x00000000       0x54 build/default/production/_ext/1408260596/tcp.o
 .text.TCPIP_TLSTCP_ClientStart
                0x00000000        0x8 build/default/production/_ext/1408260596/tcp.o
 .text.TCPIP_TLSTCP_ServerStart
                0x00000000        0x8 build/default/production/_ext/1408260596/tcp.o
 .text.TCPIP_TLSTCP_StillHandshaking
                0x00000000        0x8 build/default/production/_ext/1408260596/tcp.o
 .text.TCPIP_TLSTCP_SocketIsSecuredByTLS
                0x00000000        0x8 build/default/production/_ext/1408260596/tcp.o
 .text.TCPIP_TCP_SignalHandlerRegister
                0x00000000       0x68 build/default/production/_ext/1408260596/tcp.o
 .text.TCPIP_TCP_SignalHandlerDeregister
                0x00000000       0x4c build/default/production/_ext/1408260596/tcp.o
 .text          0x00000000        0x0 build/default/production/_ext/1408260596/udp.o
 .data          0x00000000        0x0 build/default/production/_ext/1408260596/udp.o
 .reginfo       0x00000000       0x18 build/default/production/_ext/1408260596/udp.o
 .text.TCPIP_UDP_Disconnect
                0x00000000       0xe4 build/default/production/_ext/1408260596/udp.o
 .text.TCPIP_UDP_TxOffsetSet
                0x00000000       0x90 build/default/production/_ext/1408260596/udp.o
 .text.TCPIP_UDP_TxPointerGet
                0x00000000       0x48 build/default/production/_ext/1408260596/udp.o
 .text.TCPIP_UDP_RxOffsetSet
                0x00000000       0x84 build/default/production/_ext/1408260596/udp.o
 .text.TCPIP_UDP_StringPut
                0x00000000       0x64 build/default/production/_ext/1408260596/udp.o
 .text.TCPIP_UDP_TxCountGet
                0x00000000       0x58 build/default/production/_ext/1408260596/udp.o
 .text.TCPIP_UDP_SocketNetGet
                0x00000000       0x28 build/default/production/_ext/1408260596/udp.o
 .text.TCPIP_UDP_SourceIPAddressSet
                0x00000000       0x88 build/default/production/_ext/1408260596/udp.o
 .text.TCPIP_UDP_Bind
                0x00000000      0x1e0 build/default/production/_ext/1408260596/udp.o
 .text.TCPIP_UDP_OptionsGet
                0x00000000      0x144 build/default/production/_ext/1408260596/udp.o
 .text.TCPIP_UDP_DestinationPortSet
                0x00000000       0x4c build/default/production/_ext/1408260596/udp.o
 .text.TCPIP_UDP_SetSplitPayload
                0x00000000       0xc4 build/default/production/_ext/1408260596/udp.o
 .text.TCPIP_TLSUDP_ClientStart
                0x00000000        0x8 build/default/production/_ext/1408260596/udp.o
 .text.TCPIP_TLSUDP_ServerStart
                0x00000000        0x8 build/default/production/_ext/1408260596/udp.o
 .text.TCPIP_TLSUDP_StillHandshaking
                0x00000000        0x8 build/default/production/_ext/1408260596/udp.o
 .text.TCPIP_TLSUDP_SocketIsSecuredByTLS
                0x00000000        0x8 build/default/production/_ext/1408260596/udp.o
 .text.TCPIP_UDP_SignalHandlerDeregister
                0x00000000       0x4c build/default/production/_ext/1408260596/udp.o
 .text          0x00000000        0x0 build/default/production/_ext/1408260596/arp.o
 .data          0x00000000        0x0 build/default/production/_ext/1408260596/arp.o
 .reginfo       0x00000000       0x18 build/default/production/_ext/1408260596/arp.o
 .text._ARPRemoveEntry
                0x00000000       0x70 build/default/production/_ext/1408260596/arp.o
 .text.TCPIP_ARP_Resolve
                0x00000000       0x78 build/default/production/_ext/1408260596/arp.o
 .text.TCPIP_ARP_EntrySet
                0x00000000      0x174 build/default/production/_ext/1408260596/arp.o
 .text.TCPIP_ARP_EntryRemove
                0x00000000       0xcc build/default/production/_ext/1408260596/arp.o
 .text.TCPIP_ARP_EntryRemoveNet
                0x00000000      0x1c8 build/default/production/_ext/1408260596/arp.o
 .text.TCPIP_ARP_EntryRemoveAll
                0x00000000       0xe8 build/default/production/_ext/1408260596/arp.o
 .text.TCPIP_ARP_EntryQuery
                0x00000000      0x110 build/default/production/_ext/1408260596/arp.o
 .text.TCPIP_ARP_CacheEntriesNoGet
                0x00000000       0xd8 build/default/production/_ext/1408260596/arp.o
 .text.TCPIP_ARP_CacheThresholdSet
                0x00000000       0xa8 build/default/production/_ext/1408260596/arp.o
 .text          0x00000000        0x0 build/default/production/_ext/1408260596/dhcp.o
 .data          0x00000000        0x0 build/default/production/_ext/1408260596/dhcp.o
 .bss           0x00000000        0x0 build/default/production/_ext/1408260596/dhcp.o
 .reginfo       0x00000000       0x18 build/default/production/_ext/1408260596/dhcp.o
 .text.TCPIP_DHCP_IsEnabled
                0x00000000        0x8 build/default/production/_ext/1408260596/dhcp.o
 .text.TCPIP_DHCP_IsActive
                0x00000000        0x8 build/default/production/_ext/1408260596/dhcp.o
 .text.TCPIP_DHCP_Disable
                0x00000000        0x8 build/default/production/_ext/1408260596/dhcp.o
 .text.TCPIP_DHCP_Enable
                0x00000000        0x8 build/default/production/_ext/1408260596/dhcp.o
 .text.TCPIP_DHCP_Renew
                0x00000000        0x8 build/default/production/_ext/1408260596/dhcp.o
 .text.TCPIP_DHCP_Request
                0x00000000        0x8 build/default/production/_ext/1408260596/dhcp.o
 .text.TCPIP_DHCP_InfoGet
                0x00000000        0x8 build/default/production/_ext/1408260596/dhcp.o
 .text          0x00000000        0x0 build/default/production/_ext/1408260596/icmp.o
 .data          0x00000000        0x0 build/default/production/_ext/1408260596/icmp.o
 .reginfo       0x00000000       0x18 build/default/production/_ext/1408260596/icmp.o
 .text.TCPIP_ICMP_CallbackRegister
                0x00000000       0x58 build/default/production/_ext/1408260596/icmp.o
 .text.TCPIP_ICMP_CallbackDeregister
                0x00000000       0x44 build/default/production/_ext/1408260596/icmp.o
 .text.TCPIP_ICMP_EchoRequestSend
                0x00000000      0x11c build/default/production/_ext/1408260596/icmp.o
 .text          0x00000000        0x0 build/default/production/_ext/1408260596/nbns.o
 .data          0x00000000        0x0 build/default/production/_ext/1408260596/nbns.o
 .bss           0x00000000        0x0 build/default/production/_ext/1408260596/nbns.o
 .reginfo       0x00000000       0x18 build/default/production/_ext/1408260596/nbns.o
 .text          0x00000000        0x0 build/default/production/_ext/1408260596/zero_conf_helper.o
 .data          0x00000000        0x0 build/default/production/_ext/1408260596/zero_conf_helper.o
 .bss           0x00000000        0x0 build/default/production/_ext/1408260596/zero_conf_helper.o
 .reginfo       0x00000000       0x18 build/default/production/_ext/1408260596/zero_conf_helper.o
 .text          0x00000000        0x0 build/default/production/_ext/1408260596/zero_conf_link_local.o
 .data          0x00000000        0x0 build/default/production/_ext/1408260596/zero_conf_link_local.o
 .bss           0x00000000        0x0 build/default/production/_ext/1408260596/zero_conf_link_local.o
 .reginfo       0x00000000       0x18 build/default/production/_ext/1408260596/zero_conf_link_local.o
 .text.TCPIP_ZCLL_ARPAction
                0x00000000       0x24 build/default/production/_ext/1408260596/zero_conf_link_local.o
 .text.TCPIP_ZCLL_Disable
                0x00000000       0x64 build/default/production/_ext/1408260596/zero_conf_link_local.o
 .text.TCPIP_ZCLL_IsEnabled
                0x00000000       0x24 build/default/production/_ext/1408260596/zero_conf_link_local.o
 .text          0x00000000        0x0 build/default/production/_ext/1408260596/tcpip_announce.o
 .data          0x00000000        0x0 build/default/production/_ext/1408260596/tcpip_announce.o
 .bss           0x00000000        0x0 build/default/production/_ext/1408260596/tcpip_announce.o
 .reginfo       0x00000000       0x18 build/default/production/_ext/1408260596/tcpip_announce.o
 .text          0x00000000        0x0 build/default/production/_ext/1408260596/hash_fnv.o
 .data          0x00000000        0x0 build/default/production/_ext/1408260596/hash_fnv.o
 .bss           0x00000000        0x0 build/default/production/_ext/1408260596/hash_fnv.o
 .reginfo       0x00000000       0x18 build/default/production/_ext/1408260596/hash_fnv.o
 .text.fnv_32a_hash
                0x00000000       0x5c build/default/production/_ext/1408260596/hash_fnv.o
 .text          0x00000000        0x0 build/default/production/_ext/1408260596/oahash.o
 .data          0x00000000        0x0 build/default/production/_ext/1408260596/oahash.o
 .bss           0x00000000        0x0 build/default/production/_ext/1408260596/oahash.o
 .reginfo       0x00000000       0x18 build/default/production/_ext/1408260596/oahash.o
 .text.TCPIP_OAHASH_EntryGet
                0x00000000       0x2c build/default/production/_ext/1408260596/oahash.o
 .text          0x00000000        0x0 build/default/production/_ext/1408260596/tcpip_heap_alloc.o
 .data          0x00000000        0x0 build/default/production/_ext/1408260596/tcpip_heap_alloc.o
 .bss           0x00000000        0x0 build/default/production/_ext/1408260596/tcpip_heap_alloc.o
 .reginfo       0x00000000       0x18 build/default/production/_ext/1408260596/tcpip_heap_alloc.o
 .text.TCPIP_HEAP_Size
                0x00000000       0x1c build/default/production/_ext/1408260596/tcpip_heap_alloc.o
 .text.TCPIP_HEAP_MaxSize
                0x00000000       0xc0 build/default/production/_ext/1408260596/tcpip_heap_alloc.o
 .text.TCPIP_HEAP_LastError
                0x00000000       0x1c build/default/production/_ext/1408260596/tcpip_heap_alloc.o
 .text          0x00000000        0x0 build/default/production/_ext/1408260596/tcpip_helpers.o
 .data          0x00000000        0x0 build/default/production/_ext/1408260596/tcpip_helpers.o
 .bss           0x00000000        0x0 build/default/production/_ext/1408260596/tcpip_helpers.o
 .reginfo       0x00000000       0x18 build/default/production/_ext/1408260596/tcpip_helpers.o
 .text.TCPIP_Helper_IPAddressToString
                0x00000000       0x98 build/default/production/_ext/1408260596/tcpip_helpers.o
 .text.TCPIP_Helper_StringToIPv6Address
                0x00000000      0x3f0 build/default/production/_ext/1408260596/tcpip_helpers.o
 .text.TCPIP_Helper_IPv6AddressToString
                0x00000000      0x150 build/default/production/_ext/1408260596/tcpip_helpers.o
 .text.TCPIP_Helper_IsPrivateAddress
                0x00000000       0x3c build/default/production/_ext/1408260596/tcpip_helpers.o
 .text.TCPIP_Helper_MACAddressToString
                0x00000000       0x80 build/default/production/_ext/1408260596/tcpip_helpers.o
 .text.TCPIP_Helper_PowerModeToString
                0x00000000       0x28 build/default/production/_ext/1408260596/tcpip_helpers.o
 .text.TCPIP_Helper_FindCommonPrefix
                0x00000000       0xa4 build/default/production/_ext/1408260596/tcpip_helpers.o
 .text.TCPIP_Helper_SingleListHeadAdd
                0x00000000       0x28 build/default/production/_ext/1408260596/tcpip_helpers.o
 .text.TCPIP_Helper_SingleListMidAdd
                0x00000000       0x1c build/default/production/_ext/1408260596/tcpip_helpers.o
 .text.TCPIP_Helper_SingleListNextRemove
                0x00000000       0x58 build/default/production/_ext/1408260596/tcpip_helpers.o
 .text.TCPIP_Helper_ProtectedSingleListHeadAdd
                0x00000000       0x74 build/default/production/_ext/1408260596/tcpip_helpers.o
 .text.TCPIP_Helper_ProtectedSingleListMidAdd
                0x00000000       0x78 build/default/production/_ext/1408260596/tcpip_helpers.o
 .text.TCPIP_Helper_ProtectedSingleListNextRemove
                0x00000000       0x74 build/default/production/_ext/1408260596/tcpip_helpers.o
 .text.TCPIP_Helper_ProtectedSingleListAppend
                0x00000000       0x74 build/default/production/_ext/1408260596/tcpip_helpers.o
 .text.TCPIP_Helper_DoubleListInitialize
                0x00000000       0x10 build/default/production/_ext/1408260596/tcpip_helpers.o
 .text.TCPIP_Helper_DoubleListHeadAdd
                0x00000000       0x40 build/default/production/_ext/1408260596/tcpip_helpers.o
 .text.TCPIP_Helper_DoubleListTailAdd
                0x00000000       0x44 build/default/production/_ext/1408260596/tcpip_helpers.o
 .text.TCPIP_Helper_DoubleListMidAdd
                0x00000000       0x28 build/default/production/_ext/1408260596/tcpip_helpers.o
 .text.TCPIP_Helper_DoubleListHeadRemove
                0x00000000       0x40 build/default/production/_ext/1408260596/tcpip_helpers.o
 .text.TCPIP_Helper_DoubleListTailRemove
                0x00000000       0x40 build/default/production/_ext/1408260596/tcpip_helpers.o
 .text.TCPIP_Helper_DoubleListMidRemove
                0x00000000       0x28 build/default/production/_ext/1408260596/tcpip_helpers.o
 .text.TCPIP_Helper_DoubleListNodeRemove
                0x00000000       0x50 build/default/production/_ext/1408260596/tcpip_helpers.o
 .text.TCPIP_Helper_ProtectedDoubleListInitialize
                0x00000000       0x3c build/default/production/_ext/1408260596/tcpip_helpers.o
 .text.TCPIP_Helper_ProtectedDoubleListDeinitialize
                0x00000000       0x6c build/default/production/_ext/1408260596/tcpip_helpers.o
 .text.TCPIP_Helper_ProtectedDoubleListHeadAdd
                0x00000000       0x74 build/default/production/_ext/1408260596/tcpip_helpers.o
 .text.TCPIP_Helper_ProtectedDoubleListTailAdd
                0x00000000       0x74 build/default/production/_ext/1408260596/tcpip_helpers.o
 .text.TCPIP_Helper_ProtectedDoubleListMidAdd
                0x00000000       0x74 build/default/production/_ext/1408260596/tcpip_helpers.o
 .text.TCPIP_Helper_ProtectedDoubleListHeadRemove
                0x00000000       0x74 build/default/production/_ext/1408260596/tcpip_helpers.o
 .text.TCPIP_Helper_ProtectedDoubleListTailRemove
                0x00000000       0x74 build/default/production/_ext/1408260596/tcpip_helpers.o
 .text.TCPIP_Helper_ProtectedDoubleListMidRemove
                0x00000000       0x74 build/default/production/_ext/1408260596/tcpip_helpers.o
 .text.TCPIP_Helper_ProtectedDoubleListNodeRemove
                0x00000000       0x74 build/default/production/_ext/1408260596/tcpip_helpers.o
 .text.TCPIP_Helper_ProtectedDoubleListRemoveAll
                0x00000000       0x88 build/default/production/_ext/1408260596/tcpip_helpers.o
 .text.TCPIP_Helper_ProtectedDoubleListLock
                0x00000000       0x44 build/default/production/_ext/1408260596/tcpip_helpers.o
 .text.TCPIP_Helper_ProtectedDoubleListUnlock
                0x00000000       0x30 build/default/production/_ext/1408260596/tcpip_helpers.o
 .data          0x00000000        0x0 build/default/production/_ext/1408260596/tcpip_helper_c32.o
 .bss           0x00000000        0x0 build/default/production/_ext/1408260596/tcpip_helper_c32.o
 .reginfo       0x00000000       0x18 build/default/production/_ext/1408260596/tcpip_helper_c32.o
 .text          0x00000000        0x0 build/default/production/_ext/1408260596/tcpip_manager.o
 .reginfo       0x00000000       0x18 build/default/production/_ext/1408260596/tcpip_manager.o
 .text.TCPIP_STACK_NetUp
                0x00000000       0xe4 build/default/production/_ext/1408260596/tcpip_manager.o
 .text.TCPIP_STACK_InitializeDataGet
                0x00000000       0x58 build/default/production/_ext/1408260596/tcpip_manager.o
 .text.TCPIP_STACK_NetDefaultGet
                0x00000000        0x8 build/default/production/_ext/1408260596/tcpip_manager.o
 .text.TCPIP_STACK_NetDefaultSet
                0x00000000       0x2c build/default/production/_ext/1408260596/tcpip_manager.o
 .text.TCPIP_STACK_MacToNet
                0x00000000       0x4c build/default/production/_ext/1408260596/tcpip_manager.o
 .text.TCPIP_STACK_MacToNetIndex
                0x00000000       0x54 build/default/production/_ext/1408260596/tcpip_manager.o
 .text.TCPIP_STACK_NetIndexGet
                0x00000000       0x18 build/default/production/_ext/1408260596/tcpip_manager.o
 .text.TCPIP_STACK_MACIdToNet
                0x00000000       0x5c build/default/production/_ext/1408260596/tcpip_manager.o
 .text.TCPIP_STACK_NetHandleGet
                0x00000000       0x84 build/default/production/_ext/1408260596/tcpip_manager.o
 .text.TCPIP_STACK_NetAliasNameGet
                0x00000000       0x8c build/default/production/_ext/1408260596/tcpip_manager.o
 .text.TCPIP_STACK_MACObjectGet
                0x00000000       0x18 build/default/production/_ext/1408260596/tcpip_manager.o
 .text.TCPIP_STACK_NetAddressSet
                0x00000000       0x48 build/default/production/_ext/1408260596/tcpip_manager.o
 .text.TCPIP_STACK_NetAddressGatewaySet
                0x00000000       0x30 build/default/production/_ext/1408260596/tcpip_manager.o
 .text.TCPIP_STACK_NetAddressGateway
                0x00000000       0x28 build/default/production/_ext/1408260596/tcpip_manager.o
 .text.TCPIP_STACK_NetAddressDnsPrimary
                0x00000000       0x28 build/default/production/_ext/1408260596/tcpip_manager.o
 .text.TCPIP_STACK_NetAddressDnsSecond
                0x00000000       0x28 build/default/production/_ext/1408260596/tcpip_manager.o
 .text.TCPIP_STACK_NetAddressDnsPrimarySet
                0x00000000       0x2c build/default/production/_ext/1408260596/tcpip_manager.o
 .text.TCPIP_STACK_NetAddressDnsSecondSet
                0x00000000       0x30 build/default/production/_ext/1408260596/tcpip_manager.o
 .text.TCPIP_STACK_NetMask
                0x00000000       0x44 build/default/production/_ext/1408260596/tcpip_manager.o
 .text.TCPIP_STACK_NetAddressMacSet
                0x00000000       0x4c build/default/production/_ext/1408260596/tcpip_manager.o
 .text.TCPIP_STACK_NetBiosNameSet
                0x00000000       0x8c build/default/production/_ext/1408260596/tcpip_manager.o
 .text.TCPIP_STACK_NetAddressMac
                0x00000000       0x44 build/default/production/_ext/1408260596/tcpip_manager.o
 .text.TCPIP_STACK_SetLocalMasksType
                0x00000000       0x38 build/default/production/_ext/1408260596/tcpip_manager.o
 .text.TCPIP_STACK_SetLocalMasks
                0x00000000       0x30 build/default/production/_ext/1408260596/tcpip_manager.o
 .text.TCPIP_STACK_NetMACIdGet
                0x00000000       0x28 build/default/production/_ext/1408260596/tcpip_manager.o
 .text.TCPIP_STACK_NetMACStatisticsGet
                0x00000000       0x50 build/default/production/_ext/1408260596/tcpip_manager.o
 .text.TCPIP_STACK_NetMACRegisterStatisticsGet
                0x00000000       0x50 build/default/production/_ext/1408260596/tcpip_manager.o
 .text.TCPIP_STACK_ModuleConfigGet
                0x00000000       0x74 build/default/production/_ext/1408260596/tcpip_manager.o
 .text.TCPIP_STACK_NetConfigGet
                0x00000000      0x104 build/default/production/_ext/1408260596/tcpip_manager.o
 .text._NetConfigStringToBuffer
                0x00000000       0xc8 build/default/production/_ext/1408260596/tcpip_manager.o
 .text.TCPIP_STACK_NetConfigSet
                0x00000000      0x2dc build/default/production/_ext/1408260596/tcpip_manager.o
 .text.TCPIP_STACK_StringToMACId
                0x00000000       0x9c build/default/production/_ext/1408260596/tcpip_manager.o
 .text.TCPIP_STACK_NetIsUp
                0x00000000       0x20 build/default/production/_ext/1408260596/tcpip_manager.o
 .text.TCPIP_STACK_NetIsLinked
                0x00000000       0x44 build/default/production/_ext/1408260596/tcpip_manager.o
 .text.TCPIP_STACK_NetIsReady
                0x00000000       0x34 build/default/production/_ext/1408260596/tcpip_manager.o
 .text.TCPIP_STACK_DNSServiceSelect
                0x00000000       0x14 build/default/production/_ext/1408260596/tcpip_manager.o
 .text.TCPIP_STACK_DNSServiceCanStart
                0x00000000        0x8 build/default/production/_ext/1408260596/tcpip_manager.o
 .text._TCPIPStackAddressServiceIsRunning
                0x00000000        0xc build/default/production/_ext/1408260596/tcpip_manager.o
 .text.TCPIP_STACK_EventsPendingGet
                0x00000000       0x4c build/default/production/_ext/1408260596/tcpip_manager.o
 .text.TCPIP_STACK_HandlerRegister
                0x00000000       0x94 build/default/production/_ext/1408260596/tcpip_manager.o
 .text.TCPIP_STACK_HandlerDeregister
                0x00000000       0x3c build/default/production/_ext/1408260596/tcpip_manager.o
 .text.TCPIP_STACK_NetStaticIPv6AddressGet
                0x00000000        0x8 build/default/production/_ext/1408260596/tcpip_manager.o
 .text.TCPIP_STACK_NetDefaultIPv6GatewayGet
                0x00000000        0x8 build/default/production/_ext/1408260596/tcpip_manager.o
 .text.TCPIP_STACK_NetworkAddressSet
                0x00000000       0x48 build/default/production/_ext/1408260596/tcpip_manager.o
 .text.TCPIP_STACK_GatewayAddressSet
                0x00000000       0x18 build/default/production/_ext/1408260596/tcpip_manager.o
 .text.TCPIP_STACK_PrimaryDNSAddressSet
                0x00000000       0x18 build/default/production/_ext/1408260596/tcpip_manager.o
 .text.TCPIP_STACK_SecondaryDNSAddressSet
                0x00000000       0x18 build/default/production/_ext/1408260596/tcpip_manager.o
 .text.TCPIP_STACK_AddressIsOfNetUp
                0x00000000       0x54 build/default/production/_ext/1408260596/tcpip_manager.o
 .text.TCPIP_STACK_NetMACId
                0x00000000       0x18 build/default/production/_ext/1408260596/tcpip_manager.o
 .text.TCPIP_STACK_NetToMAC
                0x00000000       0x18 build/default/production/_ext/1408260596/tcpip_manager.o
 .text._TCPIPStackSignalHandlerSetParams
                0x00000000       0x4c build/default/production/_ext/1408260596/tcpip_manager.o
 .text.TCPIP_STACK_VersionGet
                0x00000000        0xc build/default/production/_ext/1408260596/tcpip_manager.o
 .text.TCPIP_STACK_VersionStrGet
                0x00000000        0xc build/default/production/_ext/1408260596/tcpip_manager.o
 .text.TCPIP_MODULE_SignalFunctionRegister
                0x00000000       0x50 build/default/production/_ext/1408260596/tcpip_manager.o
 .text.TCPIP_MODULE_SignalFunctionDeregister
                0x00000000       0x1c build/default/production/_ext/1408260596/tcpip_manager.o
 .text.TCPIP_MODULE_SignalGet
                0x00000000       0x50 build/default/production/_ext/1408260596/tcpip_manager.o
 .text          0x00000000        0x0 build/default/production/_ext/1408260596/tcpip_notify.o
 .data          0x00000000        0x0 build/default/production/_ext/1408260596/tcpip_notify.o
 .bss           0x00000000        0x0 build/default/production/_ext/1408260596/tcpip_notify.o
 .reginfo       0x00000000       0x18 build/default/production/_ext/1408260596/tcpip_notify.o
 .text          0x00000000        0x0 build/default/production/_ext/1408260596/tcpip_packet.o
 .bss           0x00000000        0x0 build/default/production/_ext/1408260596/tcpip_packet.o
 .reginfo       0x00000000       0x18 build/default/production/_ext/1408260596/tcpip_packet.o
 .text.TCPIP_PKT_SegmentAlloc
                0x00000000       0xac build/default/production/_ext/1408260596/tcpip_packet.o
 .text.TCPIP_PKT_SegmentAppend
                0x00000000       0x30 build/default/production/_ext/1408260596/tcpip_packet.o
 .text.TCPIP_PKT_SegmentFree
                0x00000000       0x44 build/default/production/_ext/1408260596/tcpip_packet.o
 .text.TCPIP_PKT_PayloadLen
                0x00000000       0x38 build/default/production/_ext/1408260596/tcpip_packet.o
 .text.TCPIP_PKT_FlightFlagsUpdate
                0x00000000       0x44 build/default/production/_ext/1408260596/tcpip_packet.o
 .text.TCPIP_PKT_FlightFlagsUpdateAll
                0x00000000        0x8 build/default/production/_ext/1408260596/tcpip_packet.o
 .text.TCPIP_PKT_FlightTypeUpdate
                0x00000000       0x40 build/default/production/_ext/1408260596/tcpip_packet.o
 .text.TCPIP_PKT_FlightTypeUpdateAll
                0x00000000       0x1c build/default/production/_ext/1408260596/tcpip_packet.o
 .text          0x00000000        0x0 build/default/production/_ext/1408260596/ipv4.o
 .data          0x00000000        0x0 build/default/production/_ext/1408260596/ipv4.o
 .reginfo       0x00000000       0x18 build/default/production/_ext/1408260596/ipv4.o
 .text.IPv4RegisterFilter
                0x00000000       0x60 build/default/production/_ext/1408260596/ipv4.o
 .text.Ipv4DeRegisterFilter
                0x00000000       0x44 build/default/production/_ext/1408260596/ipv4.o
 .text          0x00000000        0x0 ..\..\..\..\bin\framework\peripheral\PIC32MZ2048ECH144_peripherals.a(plib_eth_lib.o)
 .data          0x00000000        0x0 ..\..\..\..\bin\framework\peripheral\PIC32MZ2048ECH144_peripherals.a(plib_eth_lib.o)
 .bss           0x00000000        0x0 ..\..\..\..\bin\framework\peripheral\PIC32MZ2048ECH144_peripherals.a(plib_eth_lib.o)
 .reginfo       0x00000000       0x18 ..\..\..\..\bin\framework\peripheral\PIC32MZ2048ECH144_peripherals.a(plib_eth_lib.o)
 .text.PLIB_ETH_RxFiltersWrite
                0x00000000       0x28 ..\..\..\..\bin\framework\peripheral\PIC32MZ2048ECH144_peripherals.a(plib_eth_lib.o)
 .text.PLIB_ETH_RxFiltersPMSet
                0x00000000       0x80 ..\..\..\..\bin\framework\peripheral\PIC32MZ2048ECH144_peripherals.a(plib_eth_lib.o)
 .text.PLIB_ETH_RxFiltersPMClr
                0x00000000       0x20 ..\..\..\..\bin\framework\peripheral\PIC32MZ2048ECH144_peripherals.a(plib_eth_lib.o)
 .text.PLIB_ETH_EventsEnableWrite
                0x00000000       0x20 ..\..\..\..\bin\framework\peripheral\PIC32MZ2048ECH144_peripherals.a(plib_eth_lib.o)
 .text.PLIB_ETH_EventsEnableGet
                0x00000000       0x20 ..\..\..\..\bin\framework\peripheral\PIC32MZ2048ECH144_peripherals.a(plib_eth_lib.o)
 .text          0x00000000        0x0 c:/program files (x86)/microchip/xc32/v1.40/bin/bin/../../lib/gcc/pic32mx/4.8.3/../../../../pic32mx/lib/./proc/32MZ2048ECH144\default_isr_vectors.o
 .data          0x00000000        0x0 c:/program files (x86)/microchip/xc32/v1.40/bin/bin/../../lib/gcc/pic32mx/4.8.3/../../../../pic32mx/lib/./proc/32MZ2048ECH144\default_isr_vectors.o
 .bss           0x00000000        0x0 c:/program files (x86)/microchip/xc32/v1.40/bin/bin/../../lib/gcc/pic32mx/4.8.3/../../../../pic32mx/lib/./proc/32MZ2048ECH144\default_isr_vectors.o
 .reginfo       0x00000000       0x18 c:/program files (x86)/microchip/xc32/v1.40/bin/bin/../../lib/gcc/pic32mx/4.8.3/../../../../pic32mx/lib/./proc/32MZ2048ECH144\default_isr_vectors.o
 .discard       0x00000000        0x4 c:/program files (x86)/microchip/xc32/v1.40/bin/bin/../../lib/gcc/pic32mx/4.8.3/../../../../pic32mx/lib/./proc/32MZ2048ECH144\default_isr_vectors.o
 .data          0x00000000        0x0 c:/program files (x86)/microchip/xc32/v1.40/bin/bin/../../lib/gcc/pic32mx/4.8.3/../../../../pic32mx/lib\pic32_software_reset.o
 .bss           0x00000000        0x0 c:/program files (x86)/microchip/xc32/v1.40/bin/bin/../../lib/gcc/pic32mx/4.8.3/../../../../pic32mx/lib\pic32_software_reset.o
 .reginfo       0x00000000       0x18 c:/program files (x86)/microchip/xc32/v1.40/bin/bin/../../lib/gcc/pic32mx/4.8.3/../../../../pic32mx/lib\pic32_software_reset.o
 .text          0x00000000        0x0 c:/program files (x86)/microchip/xc32/v1.40/bin/bin/../../lib/gcc/pic32mx/4.8.3/../../../../pic32mx/lib/./proc/32MZ2048ECH144\processor.o
 .data          0x00000000        0x0 c:/program files (x86)/microchip/xc32/v1.40/bin/bin/../../lib/gcc/pic32mx/4.8.3/../../../../pic32mx/lib/./proc/32MZ2048ECH144\processor.o
 .bss           0x00000000        0x0 c:/program files (x86)/microchip/xc32/v1.40/bin/bin/../../lib/gcc/pic32mx/4.8.3/../../../../pic32mx/lib/./proc/32MZ2048ECH144\processor.o
 .reginfo       0x00000000       0x18 c:/program files (x86)/microchip/xc32/v1.40/bin/bin/../../lib/gcc/pic32mx/4.8.3/../../../../pic32mx/lib/./proc/32MZ2048ECH144\processor.o
 .text          0x00000000        0x0 c:/program files (x86)/microchip/xc32/v1.40/bin/bin/../../lib/gcc/pic32mx/4.8.3/../../../../pic32mx/lib/./proc/32MZ2048ECH144\vector_offset_init.o
 .data          0x00000000        0x0 c:/program files (x86)/microchip/xc32/v1.40/bin/bin/../../lib/gcc/pic32mx/4.8.3/../../../../pic32mx/lib/./proc/32MZ2048ECH144\vector_offset_init.o
 .bss           0x00000000        0x0 c:/program files (x86)/microchip/xc32/v1.40/bin/bin/../../lib/gcc/pic32mx/4.8.3/../../../../pic32mx/lib/./proc/32MZ2048ECH144\vector_offset_init.o
 .reginfo       0x00000000       0x18 c:/program files (x86)/microchip/xc32/v1.40/bin/bin/../../lib/gcc/pic32mx/4.8.3/../../../../pic32mx/lib/./proc/32MZ2048ECH144\vector_offset_init.o
 .data          0x00000000        0x0 c:/program files (x86)/microchip/xc32/v1.40/bin/bin/../../lib/gcc/pic32mx/4.8.3\libgcc.a(_udivdi3.o)
 .bss           0x00000000        0x0 c:/program files (x86)/microchip/xc32/v1.40/bin/bin/../../lib/gcc/pic32mx/4.8.3\libgcc.a(_udivdi3.o)
 .reginfo       0x00000000       0x18 c:/program files (x86)/microchip/xc32/v1.40/bin/bin/../../lib/gcc/pic32mx/4.8.3\libgcc.a(_udivdi3.o)
 .data          0x00000000        0x0 c:/program files (x86)/microchip/xc32/v1.40/bin/bin/../../lib/gcc/pic32mx/4.8.3/../../../../pic32mx/lib\libpic32.a(memcmp.o)
 .bss           0x00000000        0x0 c:/program files (x86)/microchip/xc32/v1.40/bin/bin/../../lib/gcc/pic32mx/4.8.3/../../../../pic32mx/lib\libpic32.a(memcmp.o)
 .reginfo       0x00000000       0x18 c:/program files (x86)/microchip/xc32/v1.40/bin/bin/../../lib/gcc/pic32mx/4.8.3/../../../../pic32mx/lib\libpic32.a(memcmp.o)
 .data          0x00000000        0x0 c:/program files (x86)/microchip/xc32/v1.40/bin/bin/../../lib/gcc/pic32mx/4.8.3/../../../../pic32mx/lib\libpic32.a(memcpy.o)
 .bss           0x00000000        0x0 c:/program files (x86)/microchip/xc32/v1.40/bin/bin/../../lib/gcc/pic32mx/4.8.3/../../../../pic32mx/lib\libpic32.a(memcpy.o)
 .reginfo       0x00000000       0x18 c:/program files (x86)/microchip/xc32/v1.40/bin/bin/../../lib/gcc/pic32mx/4.8.3/../../../../pic32mx/lib\libpic32.a(memcpy.o)
 .data          0x00000000        0x0 c:/program files (x86)/microchip/xc32/v1.40/bin/bin/../../lib/gcc/pic32mx/4.8.3/../../../../pic32mx/lib\libpic32.a(memset.o)
 .bss           0x00000000        0x0 c:/program files (x86)/microchip/xc32/v1.40/bin/bin/../../lib/gcc/pic32mx/4.8.3/../../../../pic32mx/lib\libpic32.a(memset.o)
 .reginfo       0x00000000       0x18 c:/program files (x86)/microchip/xc32/v1.40/bin/bin/../../lib/gcc/pic32mx/4.8.3/../../../../pic32mx/lib\libpic32.a(memset.o)
 .data          0x00000000        0x0 c:/program files (x86)/microchip/xc32/v1.40/bin/bin/../../lib/gcc/pic32mx/4.8.3/../../../../pic32mx/lib\libpic32.a(strcmp.o)
 .bss           0x00000000        0x0 c:/program files (x86)/microchip/xc32/v1.40/bin/bin/../../lib/gcc/pic32mx/4.8.3/../../../../pic32mx/lib\libpic32.a(strcmp.o)
 .reginfo       0x00000000       0x18 c:/program files (x86)/microchip/xc32/v1.40/bin/bin/../../lib/gcc/pic32mx/4.8.3/../../../../pic32mx/lib\libpic32.a(strcmp.o)
 .text          0x00000000      0x1a0 c:/program files (x86)/microchip/xc32/v1.40/bin/bin/../../lib/gcc/pic32mx/4.8.3/../../../../pic32mx/lib\libpic32.a(strcpy.o)
 .data          0x00000000        0x0 c:/program files (x86)/microchip/xc32/v1.40/bin/bin/../../lib/gcc/pic32mx/4.8.3/../../../../pic32mx/lib\libpic32.a(strcpy.o)
 .bss           0x00000000        0x0 c:/program files (x86)/microchip/xc32/v1.40/bin/bin/../../lib/gcc/pic32mx/4.8.3/../../../../pic32mx/lib\libpic32.a(strcpy.o)
 .reginfo       0x00000000       0x18 c:/program files (x86)/microchip/xc32/v1.40/bin/bin/../../lib/gcc/pic32mx/4.8.3/../../../../pic32mx/lib\libpic32.a(strcpy.o)
 .comment       0x00000000       0x1a c:/program files (x86)/microchip/xc32/v1.40/bin/bin/../../lib/gcc/pic32mx/4.8.3/../../../../pic32mx/lib\libpic32.a(strcpy.o)
 .data          0x00000000        0x0 c:/program files (x86)/microchip/xc32/v1.40/bin/bin/../../lib/gcc/pic32mx/4.8.3/../../../../pic32mx/lib\libpic32.a(strlen.o)
 .bss           0x00000000        0x0 c:/program files (x86)/microchip/xc32/v1.40/bin/bin/../../lib/gcc/pic32mx/4.8.3/../../../../pic32mx/lib\libpic32.a(strlen.o)
 .reginfo       0x00000000       0x18 c:/program files (x86)/microchip/xc32/v1.40/bin/bin/../../lib/gcc/pic32mx/4.8.3/../../../../pic32mx/lib\libpic32.a(strlen.o)
 .text          0x00000000        0x0 c:/program files (x86)/microchip/xc32/v1.40/bin/bin/../../lib/gcc/pic32mx/4.8.3/../../../../pic32mx/lib\libpic32.a(default-bootstrap-exception-handler.o)
 .data          0x00000000        0x0 c:/program files (x86)/microchip/xc32/v1.40/bin/bin/../../lib/gcc/pic32mx/4.8.3/../../../../pic32mx/lib\libpic32.a(default-bootstrap-exception-handler.o)
 .bss           0x00000000        0x0 c:/program files (x86)/microchip/xc32/v1.40/bin/bin/../../lib/gcc/pic32mx/4.8.3/../../../../pic32mx/lib\libpic32.a(default-bootstrap-exception-handler.o)
 .reginfo       0x00000000       0x18 c:/program files (x86)/microchip/xc32/v1.40/bin/bin/../../lib/gcc/pic32mx/4.8.3/../../../../pic32mx/lib\libpic32.a(default-bootstrap-exception-handler.o)
 .text          0x00000000        0x0 c:/program files (x86)/microchip/xc32/v1.40/bin/bin/../../lib/gcc/pic32mx/4.8.3/../../../../pic32mx/lib\libpic32.a(default-on-reset.o)
 .data          0x00000000        0x0 c:/program files (x86)/microchip/xc32/v1.40/bin/bin/../../lib/gcc/pic32mx/4.8.3/../../../../pic32mx/lib\libpic32.a(default-on-reset.o)
 .bss           0x00000000        0x0 c:/program files (x86)/microchip/xc32/v1.40/bin/bin/../../lib/gcc/pic32mx/4.8.3/../../../../pic32mx/lib\libpic32.a(default-on-reset.o)
 .reginfo       0x00000000       0x18 c:/program files (x86)/microchip/xc32/v1.40/bin/bin/../../lib/gcc/pic32mx/4.8.3/../../../../pic32mx/lib\libpic32.a(default-on-reset.o)
 .text          0x00000000        0x0 c:/program files (x86)/microchip/xc32/v1.40/bin/bin/../../lib/gcc/pic32mx/4.8.3/../../../../pic32mx/lib\libpic32.a(default-on-bootstrap.o)
 .data          0x00000000        0x0 c:/program files (x86)/microchip/xc32/v1.40/bin/bin/../../lib/gcc/pic32mx/4.8.3/../../../../pic32mx/lib\libpic32.a(default-on-bootstrap.o)
 .bss           0x00000000        0x0 c:/program files (x86)/microchip/xc32/v1.40/bin/bin/../../lib/gcc/pic32mx/4.8.3/../../../../pic32mx/lib\libpic32.a(default-on-bootstrap.o)
 .reginfo       0x00000000       0x18 c:/program files (x86)/microchip/xc32/v1.40/bin/bin/../../lib/gcc/pic32mx/4.8.3/../../../../pic32mx/lib\libpic32.a(default-on-bootstrap.o)
 .data          0x00000000        0x0 c:/program files (x86)/microchip/xc32/v1.40/bin/bin/../../lib/gcc/pic32mx/4.8.3/../../../../pic32mx/lib\libpic32.a(default-nmi-handler.o)
 .bss           0x00000000        0x0 c:/program files (x86)/microchip/xc32/v1.40/bin/bin/../../lib/gcc/pic32mx/4.8.3/../../../../pic32mx/lib\libpic32.a(default-nmi-handler.o)
 .reginfo       0x00000000       0x18 c:/program files (x86)/microchip/xc32/v1.40/bin/bin/../../lib/gcc/pic32mx/4.8.3/../../../../pic32mx/lib\libpic32.a(default-nmi-handler.o)
 .text          0x00000000        0x0 c:/program files (x86)/microchip/xc32/v1.40/bin/bin/../../lib/gcc/pic32mx/4.8.3/../../../../pic32mx/lib\libpic32.a(pic32_init_cache.o)
 .data          0x00000000        0x0 c:/program files (x86)/microchip/xc32/v1.40/bin/bin/../../lib/gcc/pic32mx/4.8.3/../../../../pic32mx/lib\libpic32.a(pic32_init_cache.o)
 .bss           0x00000000        0x0 c:/program files (x86)/microchip/xc32/v1.40/bin/bin/../../lib/gcc/pic32mx/4.8.3/../../../../pic32mx/lib\libpic32.a(pic32_init_cache.o)
 .reginfo       0x00000000       0x18 c:/program files (x86)/microchip/xc32/v1.40/bin/bin/../../lib/gcc/pic32mx/4.8.3/../../../../pic32mx/lib\libpic32.a(pic32_init_cache.o)
 .cache_init.pic32_size_cache
                0x00000000       0x58 c:/program files (x86)/microchip/xc32/v1.40/bin/bin/../../lib/gcc/pic32mx/4.8.3/../../../../pic32mx/lib\libpic32.a(pic32_init_cache.o)
 .text          0x00000000        0x0 c:/program files (x86)/microchip/xc32/v1.40/bin/bin/../../lib/gcc/pic32mx/4.8.3/../../../../pic32mx/lib\libpic32.a(pic32_init_tlb_ebi_sqi.o)
 .data          0x00000000        0x0 c:/program files (x86)/microchip/xc32/v1.40/bin/bin/../../lib/gcc/pic32mx/4.8.3/../../../../pic32mx/lib\libpic32.a(pic32_init_tlb_ebi_sqi.o)
 .bss           0x00000000        0x0 c:/program files (x86)/microchip/xc32/v1.40/bin/bin/../../lib/gcc/pic32mx/4.8.3/../../../../pic32mx/lib\libpic32.a(pic32_init_tlb_ebi_sqi.o)
 .reginfo       0x00000000       0x18 c:/program files (x86)/microchip/xc32/v1.40/bin/bin/../../lib/gcc/pic32mx/4.8.3/../../../../pic32mx/lib\libpic32.a(pic32_init_tlb_ebi_sqi.o)
 .text          0x00000000        0x0 c:/program files (x86)/microchip/xc32/v1.40/bin/bin/../../lib/gcc/pic32mx/4.8.3/../../../../pic32mx/lib\libpic32.a(general-exception.o)
 .data          0x00000000        0x0 c:/program files (x86)/microchip/xc32/v1.40/bin/bin/../../lib/gcc/pic32mx/4.8.3/../../../../pic32mx/lib\libpic32.a(general-exception.o)
 .bss           0x00000000        0x0 c:/program files (x86)/microchip/xc32/v1.40/bin/bin/../../lib/gcc/pic32mx/4.8.3/../../../../pic32mx/lib\libpic32.a(general-exception.o)
 .reginfo       0x00000000       0x18 c:/program files (x86)/microchip/xc32/v1.40/bin/bin/../../lib/gcc/pic32mx/4.8.3/../../../../pic32mx/lib\libpic32.a(general-exception.o)
 .text          0x00000000        0x0 c:/program files (x86)/microchip/xc32/v1.40/bin/bin/../../lib/gcc/pic32mx/4.8.3/../../../../pic32mx/lib\libpic32.a(cache-err-exception.o)
 .data          0x00000000        0x0 c:/program files (x86)/microchip/xc32/v1.40/bin/bin/../../lib/gcc/pic32mx/4.8.3/../../../../pic32mx/lib\libpic32.a(cache-err-exception.o)
 .bss           0x00000000        0x0 c:/program files (x86)/microchip/xc32/v1.40/bin/bin/../../lib/gcc/pic32mx/4.8.3/../../../../pic32mx/lib\libpic32.a(cache-err-exception.o)
 .reginfo       0x00000000       0x18 c:/program files (x86)/microchip/xc32/v1.40/bin/bin/../../lib/gcc/pic32mx/4.8.3/../../../../pic32mx/lib\libpic32.a(cache-err-exception.o)
 .text          0x00000000        0x0 c:/program files (x86)/microchip/xc32/v1.40/bin/bin/../../lib/gcc/pic32mx/4.8.3/../../../../pic32mx/lib\libpic32.a(simple-tlb-refill-exception.o)
 .data          0x00000000        0x0 c:/program files (x86)/microchip/xc32/v1.40/bin/bin/../../lib/gcc/pic32mx/4.8.3/../../../../pic32mx/lib\libpic32.a(simple-tlb-refill-exception.o)
 .bss           0x00000000        0x0 c:/program files (x86)/microchip/xc32/v1.40/bin/bin/../../lib/gcc/pic32mx/4.8.3/../../../../pic32mx/lib\libpic32.a(simple-tlb-refill-exception.o)
 .reginfo       0x00000000       0x18 c:/program files (x86)/microchip/xc32/v1.40/bin/bin/../../lib/gcc/pic32mx/4.8.3/../../../../pic32mx/lib\libpic32.a(simple-tlb-refill-exception.o)
 .text          0x00000000        0x0 c:/program files (x86)/microchip/xc32/v1.40/bin/bin/../../lib/gcc/pic32mx/4.8.3/../../../../pic32mx/lib\libpic32.a(defaultinterrupt.o)
 .data          0x00000000        0x0 c:/program files (x86)/microchip/xc32/v1.40/bin/bin/../../lib/gcc/pic32mx/4.8.3/../../../../pic32mx/lib\libpic32.a(defaultinterrupt.o)
 .bss           0x00000000        0x0 c:/program files (x86)/microchip/xc32/v1.40/bin/bin/../../lib/gcc/pic32mx/4.8.3/../../../../pic32mx/lib\libpic32.a(defaultinterrupt.o)
 .reginfo       0x00000000       0x18 c:/program files (x86)/microchip/xc32/v1.40/bin/bin/../../lib/gcc/pic32mx/4.8.3/../../../../pic32mx/lib\libpic32.a(defaultinterrupt.o)
 .text          0x00000000        0x0 c:/program files (x86)/microchip/xc32/v1.40/bin/bin/../../lib/gcc/pic32mx/4.8.3/../../../../pic32mx/lib\libpic32.a(default-cache-err-exception-handler.o)
 .data          0x00000000        0x0 c:/program files (x86)/microchip/xc32/v1.40/bin/bin/../../lib/gcc/pic32mx/4.8.3/../../../../pic32mx/lib\libpic32.a(default-cache-err-exception-handler.o)
 .bss           0x00000000        0x0 c:/program files (x86)/microchip/xc32/v1.40/bin/bin/../../lib/gcc/pic32mx/4.8.3/../../../../pic32mx/lib\libpic32.a(default-cache-err-exception-handler.o)
 .reginfo       0x00000000       0x18 c:/program files (x86)/microchip/xc32/v1.40/bin/bin/../../lib/gcc/pic32mx/4.8.3/../../../../pic32mx/lib\libpic32.a(default-cache-err-exception-handler.o)
 .text          0x00000000        0x0 c:/program files (x86)/microchip/xc32/v1.40/bin/bin/../../lib/gcc/pic32mx/4.8.3/../../../../pic32mx/lib\libpic32.a(default-simple-tlb-refill-exception-handler.o)
 .data          0x00000000        0x0 c:/program files (x86)/microchip/xc32/v1.40/bin/bin/../../lib/gcc/pic32mx/4.8.3/../../../../pic32mx/lib\libpic32.a(default-simple-tlb-refill-exception-handler.o)
 .bss           0x00000000        0x0 c:/program files (x86)/microchip/xc32/v1.40/bin/bin/../../lib/gcc/pic32mx/4.8.3/../../../../pic32mx/lib\libpic32.a(default-simple-tlb-refill-exception-handler.o)
 .reginfo       0x00000000       0x18 c:/program files (x86)/microchip/xc32/v1.40/bin/bin/../../lib/gcc/pic32mx/4.8.3/../../../../pic32mx/lib\libpic32.a(default-simple-tlb-refill-exception-handler.o)
 .text          0x00000000        0x0 c:/program files (x86)/microchip/xc32/v1.40/bin/bin/../../lib/gcc/pic32mx/4.8.3/../../../../pic32mx/lib\libc.a(ctype.o)
 .data          0x00000000        0x0 c:/program files (x86)/microchip/xc32/v1.40/bin/bin/../../lib/gcc/pic32mx/4.8.3/../../../../pic32mx/lib\libc.a(ctype.o)
 .bss           0x00000000        0x0 c:/program files (x86)/microchip/xc32/v1.40/bin/bin/../../lib/gcc/pic32mx/4.8.3/../../../../pic32mx/lib\libc.a(ctype.o)
 .reginfo       0x00000000       0x18 c:/program files (x86)/microchip/xc32/v1.40/bin/bin/../../lib/gcc/pic32mx/4.8.3/../../../../pic32mx/lib\libc.a(ctype.o)
 .text          0x00000000        0x0 c:/program files (x86)/microchip/xc32/v1.40/bin/bin/../../lib/gcc/pic32mx/4.8.3/../../../../pic32mx/lib\libc.a(malloc.o)
 .data          0x00000000        0x0 c:/program files (x86)/microchip/xc32/v1.40/bin/bin/../../lib/gcc/pic32mx/4.8.3/../../../../pic32mx/lib\libc.a(malloc.o)
 .reginfo       0x00000000       0x18 c:/program files (x86)/microchip/xc32/v1.40/bin/bin/../../lib/gcc/pic32mx/4.8.3/../../../../pic32mx/lib\libc.a(malloc.o)
 .text.realloc  0x00000000      0x14c c:/program files (x86)/microchip/xc32/v1.40/bin/bin/../../lib/gcc/pic32mx/4.8.3/../../../../pic32mx/lib\libc.a(malloc.o)
 .text          0x00000000        0x0 c:/program files (x86)/microchip/xc32/v1.40/bin/bin/../../lib/gcc/pic32mx/4.8.3/../../../../pic32mx/lib\libc.a(rand.o)
 .data          0x00000000        0x0 c:/program files (x86)/microchip/xc32/v1.40/bin/bin/../../lib/gcc/pic32mx/4.8.3/../../../../pic32mx/lib\libc.a(rand.o)
 .reginfo       0x00000000       0x18 c:/program files (x86)/microchip/xc32/v1.40/bin/bin/../../lib/gcc/pic32mx/4.8.3/../../../../pic32mx/lib\libc.a(rand.o)
 .text          0x00000000        0x0 c:/program files (x86)/microchip/xc32/v1.40/bin/bin/../../lib/gcc/pic32mx/4.8.3/../../../../pic32mx/lib\libc.a(strcat.o)
 .data          0x00000000        0x0 c:/program files (x86)/microchip/xc32/v1.40/bin/bin/../../lib/gcc/pic32mx/4.8.3/../../../../pic32mx/lib\libc.a(strcat.o)
 .bss           0x00000000        0x0 c:/program files (x86)/microchip/xc32/v1.40/bin/bin/../../lib/gcc/pic32mx/4.8.3/../../../../pic32mx/lib\libc.a(strcat.o)
 .reginfo       0x00000000       0x18 c:/program files (x86)/microchip/xc32/v1.40/bin/bin/../../lib/gcc/pic32mx/4.8.3/../../../../pic32mx/lib\libc.a(strcat.o)
 .text          0x00000000        0x0 c:/program files (x86)/microchip/xc32/v1.40/bin/bin/../../lib/gcc/pic32mx/4.8.3/../../../../pic32mx/lib\libc.a(strncpy.o)
 .data          0x00000000        0x0 c:/program files (x86)/microchip/xc32/v1.40/bin/bin/../../lib/gcc/pic32mx/4.8.3/../../../../pic32mx/lib\libc.a(strncpy.o)
 .bss           0x00000000        0x0 c:/program files (x86)/microchip/xc32/v1.40/bin/bin/../../lib/gcc/pic32mx/4.8.3/../../../../pic32mx/lib\libc.a(strncpy.o)
 .reginfo       0x00000000       0x18 c:/program files (x86)/microchip/xc32/v1.40/bin/bin/../../lib/gcc/pic32mx/4.8.3/../../../../pic32mx/lib\libc.a(strncpy.o)
 .text          0x00000000        0x0 c:/program files (x86)/microchip/xc32/v1.40/bin/bin/../../lib/gcc/pic32mx/4.8.3/../../../../pic32mx/lib\libc.a(strtol.o)
 .data          0x00000000        0x0 c:/program files (x86)/microchip/xc32/v1.40/bin/bin/../../lib/gcc/pic32mx/4.8.3/../../../../pic32mx/lib\libc.a(strtol.o)
 .bss           0x00000000        0x0 c:/program files (x86)/microchip/xc32/v1.40/bin/bin/../../lib/gcc/pic32mx/4.8.3/../../../../pic32mx/lib\libc.a(strtol.o)
 .reginfo       0x00000000       0x18 c:/program files (x86)/microchip/xc32/v1.40/bin/bin/../../lib/gcc/pic32mx/4.8.3/../../../../pic32mx/lib\libc.a(strtol.o)
 .text.strtol   0x00000000      0x19c c:/program files (x86)/microchip/xc32/v1.40/bin/bin/../../lib/gcc/pic32mx/4.8.3/../../../../pic32mx/lib\libc.a(strtol.o)
 .text.strtoul  0x00000000      0x1d4 c:/program files (x86)/microchip/xc32/v1.40/bin/bin/../../lib/gcc/pic32mx/4.8.3/../../../../pic32mx/lib\libc.a(strtol.o)
 .text          0x00000000        0x0 c:/program files (x86)/microchip/xc32/v1.40/bin/bin/../../lib/gcc/pic32mx/4.8.3/../../../../pic32mx/lib\libc.a(sprintf_cdnopsuxX.eo)
 .data          0x00000000        0x0 c:/program files (x86)/microchip/xc32/v1.40/bin/bin/../../lib/gcc/pic32mx/4.8.3/../../../../pic32mx/lib\libc.a(sprintf_cdnopsuxX.eo)
 .bss           0x00000000        0x0 c:/program files (x86)/microchip/xc32/v1.40/bin/bin/../../lib/gcc/pic32mx/4.8.3/../../../../pic32mx/lib\libc.a(sprintf_cdnopsuxX.eo)
 .reginfo       0x00000000       0x18 c:/program files (x86)/microchip/xc32/v1.40/bin/bin/../../lib/gcc/pic32mx/4.8.3/../../../../pic32mx/lib\libc.a(sprintf_cdnopsuxX.eo)
 .text          0x00000000        0x0 c:/program files (x86)/microchip/xc32/v1.40/bin/bin/../../lib/gcc/pic32mx/4.8.3/../../../../pic32mx/lib\libc.a(sprintf.o)
 .data          0x00000000        0x0 c:/program files (x86)/microchip/xc32/v1.40/bin/bin/../../lib/gcc/pic32mx/4.8.3/../../../../pic32mx/lib\libc.a(sprintf.o)
 .bss           0x00000000        0x0 c:/program files (x86)/microchip/xc32/v1.40/bin/bin/../../lib/gcc/pic32mx/4.8.3/../../../../pic32mx/lib\libc.a(sprintf.o)
 .reginfo       0x00000000       0x18 c:/program files (x86)/microchip/xc32/v1.40/bin/bin/../../lib/gcc/pic32mx/4.8.3/../../../../pic32mx/lib\libc.a(sprintf.o)
 .text          0x00000000        0x0 c:/program files (x86)/microchip/xc32/v1.40/bin/bin/../../lib/gcc/pic32mx/4.8.3/../../../../pic32mx/lib\libc.a(vsnprintf.o)
 .data          0x00000000        0x0 c:/program files (x86)/microchip/xc32/v1.40/bin/bin/../../lib/gcc/pic32mx/4.8.3/../../../../pic32mx/lib\libc.a(vsnprintf.o)
 .bss           0x00000000        0x0 c:/program files (x86)/microchip/xc32/v1.40/bin/bin/../../lib/gcc/pic32mx/4.8.3/../../../../pic32mx/lib\libc.a(vsnprintf.o)
 .reginfo       0x00000000       0x18 c:/program files (x86)/microchip/xc32/v1.40/bin/bin/../../lib/gcc/pic32mx/4.8.3/../../../../pic32mx/lib\libc.a(vsnprintf.o)
 .text          0x00000000        0x0 c:/program files (x86)/microchip/xc32/v1.40/bin/bin/../../lib/gcc/pic32mx/4.8.3/../../../../pic32mx/lib\libc.a(ctypef.o)
 .data          0x00000000        0x0 c:/program files (x86)/microchip/xc32/v1.40/bin/bin/../../lib/gcc/pic32mx/4.8.3/../../../../pic32mx/lib\libc.a(ctypef.o)
 .bss           0x00000000        0x0 c:/program files (x86)/microchip/xc32/v1.40/bin/bin/../../lib/gcc/pic32mx/4.8.3/../../../../pic32mx/lib\libc.a(ctypef.o)
 .reginfo       0x00000000       0x18 c:/program files (x86)/microchip/xc32/v1.40/bin/bin/../../lib/gcc/pic32mx/4.8.3/../../../../pic32mx/lib\libc.a(ctypef.o)
 .text.tolower  0x00000000       0x24 c:/program files (x86)/microchip/xc32/v1.40/bin/bin/../../lib/gcc/pic32mx/4.8.3/../../../../pic32mx/lib\libc.a(ctypef.o)
 .text.toupper  0x00000000       0x24 c:/program files (x86)/microchip/xc32/v1.40/bin/bin/../../lib/gcc/pic32mx/4.8.3/../../../../pic32mx/lib\libc.a(ctypef.o)
 .text.isalnum  0x00000000       0x18 c:/program files (x86)/microchip/xc32/v1.40/bin/bin/../../lib/gcc/pic32mx/4.8.3/../../../../pic32mx/lib\libc.a(ctypef.o)
 .text.isalpha  0x00000000       0x18 c:/program files (x86)/microchip/xc32/v1.40/bin/bin/../../lib/gcc/pic32mx/4.8.3/../../../../pic32mx/lib\libc.a(ctypef.o)
 .text.isascii  0x00000000        0x8 c:/program files (x86)/microchip/xc32/v1.40/bin/bin/../../lib/gcc/pic32mx/4.8.3/../../../../pic32mx/lib\libc.a(ctypef.o)
 .text.iscntrl  0x00000000       0x18 c:/program files (x86)/microchip/xc32/v1.40/bin/bin/../../lib/gcc/pic32mx/4.8.3/../../../../pic32mx/lib\libc.a(ctypef.o)
 .text.isdigit  0x00000000       0x18 c:/program files (x86)/microchip/xc32/v1.40/bin/bin/../../lib/gcc/pic32mx/4.8.3/../../../../pic32mx/lib\libc.a(ctypef.o)
 .text.isgraph  0x00000000       0x18 c:/program files (x86)/microchip/xc32/v1.40/bin/bin/../../lib/gcc/pic32mx/4.8.3/../../../../pic32mx/lib\libc.a(ctypef.o)
 .text.islower  0x00000000       0x18 c:/program files (x86)/microchip/xc32/v1.40/bin/bin/../../lib/gcc/pic32mx/4.8.3/../../../../pic32mx/lib\libc.a(ctypef.o)
 .text.isprint  0x00000000       0x18 c:/program files (x86)/microchip/xc32/v1.40/bin/bin/../../lib/gcc/pic32mx/4.8.3/../../../../pic32mx/lib\libc.a(ctypef.o)
 .text.ispunct  0x00000000       0x18 c:/program files (x86)/microchip/xc32/v1.40/bin/bin/../../lib/gcc/pic32mx/4.8.3/../../../../pic32mx/lib\libc.a(ctypef.o)
 .text.isspace  0x00000000       0x18 c:/program files (x86)/microchip/xc32/v1.40/bin/bin/../../lib/gcc/pic32mx/4.8.3/../../../../pic32mx/lib\libc.a(ctypef.o)
 .text.isupper  0x00000000       0x18 c:/program files (x86)/microchip/xc32/v1.40/bin/bin/../../lib/gcc/pic32mx/4.8.3/../../../../pic32mx/lib\libc.a(ctypef.o)
 .text.isxdigit
                0x00000000       0x18 c:/program files (x86)/microchip/xc32/v1.40/bin/bin/../../lib/gcc/pic32mx/4.8.3/../../../../pic32mx/lib\libc.a(ctypef.o)
 .text.toascii  0x00000000        0x8 c:/program files (x86)/microchip/xc32/v1.40/bin/bin/../../lib/gcc/pic32mx/4.8.3/../../../../pic32mx/lib\libc.a(ctypef.o)
 .text._tolower
                0x00000000        0x8 c:/program files (x86)/microchip/xc32/v1.40/bin/bin/../../lib/gcc/pic32mx/4.8.3/../../../../pic32mx/lib\libc.a(ctypef.o)
 .text._toupper
                0x00000000        0x8 c:/program files (x86)/microchip/xc32/v1.40/bin/bin/../../lib/gcc/pic32mx/4.8.3/../../../../pic32mx/lib\libc.a(ctypef.o)
 .text          0x00000000        0x0 c:/program files (x86)/microchip/xc32/v1.40/bin/bin/../../lib/gcc/pic32mx/4.8.3/../../../../pic32mx/lib\libc.a(errno.o)
 .data          0x00000000        0x0 c:/program files (x86)/microchip/xc32/v1.40/bin/bin/../../lib/gcc/pic32mx/4.8.3/../../../../pic32mx/lib\libc.a(errno.o)
 .bss           0x00000000        0x0 c:/program files (x86)/microchip/xc32/v1.40/bin/bin/../../lib/gcc/pic32mx/4.8.3/../../../../pic32mx/lib\libc.a(errno.o)
 .reginfo       0x00000000       0x18 c:/program files (x86)/microchip/xc32/v1.40/bin/bin/../../lib/gcc/pic32mx/4.8.3/../../../../pic32mx/lib\libc.a(errno.o)
 .text          0x00000000        0x0 c:/program files (x86)/microchip/xc32/v1.40/bin/bin/../../lib/gcc/pic32mx/4.8.3/../../../../pic32mx/lib\libc.a(doprnt_cdnopsuxX.eo)
 .data          0x00000000        0x0 c:/program files (x86)/microchip/xc32/v1.40/bin/bin/../../lib/gcc/pic32mx/4.8.3/../../../../pic32mx/lib\libc.a(doprnt_cdnopsuxX.eo)
 .bss           0x00000000        0x0 c:/program files (x86)/microchip/xc32/v1.40/bin/bin/../../lib/gcc/pic32mx/4.8.3/../../../../pic32mx/lib\libc.a(doprnt_cdnopsuxX.eo)
 .reginfo       0x00000000       0x18 c:/program files (x86)/microchip/xc32/v1.40/bin/bin/../../lib/gcc/pic32mx/4.8.3/../../../../pic32mx/lib\libc.a(doprnt_cdnopsuxX.eo)
 .text          0x00000000        0x0 c:/program files (x86)/microchip/xc32/v1.40/bin/bin/../../lib/gcc/pic32mx/4.8.3/../../../../pic32mx/lib\libc.a(doprnt.o)
 .data          0x00000000        0x0 c:/program files (x86)/microchip/xc32/v1.40/bin/bin/../../lib/gcc/pic32mx/4.8.3/../../../../pic32mx/lib\libc.a(doprnt.o)
 .bss           0x00000000        0x0 c:/program files (x86)/microchip/xc32/v1.40/bin/bin/../../lib/gcc/pic32mx/4.8.3/../../../../pic32mx/lib\libc.a(doprnt.o)
 .reginfo       0x00000000       0x18 c:/program files (x86)/microchip/xc32/v1.40/bin/bin/../../lib/gcc/pic32mx/4.8.3/../../../../pic32mx/lib\libc.a(doprnt.o)
 .text          0x00000000        0x0 c:/program files (x86)/microchip/xc32/v1.40/bin/bin/../../lib/gcc/pic32mx/4.8.3/../../../../pic32mx/lib\libc.a(_fputc_simple.o)
 .data          0x00000000        0x0 c:/program files (x86)/microchip/xc32/v1.40/bin/bin/../../lib/gcc/pic32mx/4.8.3/../../../../pic32mx/lib\libc.a(_fputc_simple.o)
 .bss           0x00000000        0x0 c:/program files (x86)/microchip/xc32/v1.40/bin/bin/../../lib/gcc/pic32mx/4.8.3/../../../../pic32mx/lib\libc.a(_fputc_simple.o)
 .reginfo       0x00000000       0x18 c:/program files (x86)/microchip/xc32/v1.40/bin/bin/../../lib/gcc/pic32mx/4.8.3/../../../../pic32mx/lib\libc.a(_fputc_simple.o)
 .text          0x00000000        0x0 c:/program files (x86)/microchip/xc32/v1.40/bin/bin/../../lib/gcc/pic32mx/4.8.3/../../../../pic32mx/lib\libc.a(powersf.o)
 .data          0x00000000        0x0 c:/program files (x86)/microchip/xc32/v1.40/bin/bin/../../lib/gcc/pic32mx/4.8.3/../../../../pic32mx/lib\libc.a(powersf.o)
 .bss           0x00000000        0x0 c:/program files (x86)/microchip/xc32/v1.40/bin/bin/../../lib/gcc/pic32mx/4.8.3/../../../../pic32mx/lib\libc.a(powersf.o)
 .reginfo       0x00000000       0x18 c:/program files (x86)/microchip/xc32/v1.40/bin/bin/../../lib/gcc/pic32mx/4.8.3/../../../../pic32mx/lib\libc.a(powersf.o)
 .text          0x00000000        0x0 c:/program files (x86)/microchip/xc32/v1.40/bin/bin/../../lib/gcc/pic32mx/4.8.3/../../../../pic32mx/lib\libc.a(_iob.o)
 .data          0x00000000       0xa4 c:/program files (x86)/microchip/xc32/v1.40/bin/bin/../../lib/gcc/pic32mx/4.8.3/../../../../pic32mx/lib\libc.a(_iob.o)
 .reginfo       0x00000000       0x18 c:/program files (x86)/microchip/xc32/v1.40/bin/bin/../../lib/gcc/pic32mx/4.8.3/../../../../pic32mx/lib\libc.a(_iob.o)
 .text          0x00000000        0x0 c:/program files (x86)/microchip/xc32/v1.40/bin/bin/../../lib/gcc/pic32mx/4.8.3/../../../../pic32mx/lib\libc.a(_flsbuf_simple.o)
 .data          0x00000000        0x0 c:/program files (x86)/microchip/xc32/v1.40/bin/bin/../../lib/gcc/pic32mx/4.8.3/../../../../pic32mx/lib\libc.a(_flsbuf_simple.o)
 .bss           0x00000000        0x0 c:/program files (x86)/microchip/xc32/v1.40/bin/bin/../../lib/gcc/pic32mx/4.8.3/../../../../pic32mx/lib\libc.a(_flsbuf_simple.o)
 .reginfo       0x00000000       0x18 c:/program files (x86)/microchip/xc32/v1.40/bin/bin/../../lib/gcc/pic32mx/4.8.3/../../../../pic32mx/lib\libc.a(_flsbuf_simple.o)
 .text          0x00000000        0x0 c:/program files (x86)/microchip/xc32/v1.40/bin/bin/../../lib/gcc/pic32mx/4.8.3/../../../../pic32mx/lib\libpic32.a(sbrk.o)
 .data          0x00000000        0x0 c:/program files (x86)/microchip/xc32/v1.40/bin/bin/../../lib/gcc/pic32mx/4.8.3/../../../../pic32mx/lib\libpic32.a(sbrk.o)
 .reginfo       0x00000000       0x18 c:/program files (x86)/microchip/xc32/v1.40/bin/bin/../../lib/gcc/pic32mx/4.8.3/../../../../pic32mx/lib\libpic32.a(sbrk.o)
 .text.getpagesize
                0x00000000        0x8 c:/program files (x86)/microchip/xc32/v1.40/bin/bin/../../lib/gcc/pic32mx/4.8.3/../../../../pic32mx/lib\libpic32.a(sbrk.o)
 .text          0x00000000        0x0 c:/program files (x86)/microchip/xc32/v1.40/bin/bin/../../lib/gcc/pic32mx/4.8.3/../../../../pic32mx/lib\libpic32.a(write.o)
 .data          0x00000000        0x0 c:/program files (x86)/microchip/xc32/v1.40/bin/bin/../../lib/gcc/pic32mx/4.8.3/../../../../pic32mx/lib\libpic32.a(write.o)
 .bss           0x00000000        0x0 c:/program files (x86)/microchip/xc32/v1.40/bin/bin/../../lib/gcc/pic32mx/4.8.3/../../../../pic32mx/lib\libpic32.a(write.o)
 .reginfo       0x00000000       0x18 c:/program files (x86)/microchip/xc32/v1.40/bin/bin/../../lib/gcc/pic32mx/4.8.3/../../../../pic32mx/lib\libpic32.a(write.o)
 .text          0x00000000        0x0 c:/program files (x86)/microchip/xc32/v1.40/bin/bin/../../lib/gcc/pic32mx/4.8.3/../../../../pic32mx/lib\libpic32.a(_mon_putc.o)
 .data          0x00000000        0x0 c:/program files (x86)/microchip/xc32/v1.40/bin/bin/../../lib/gcc/pic32mx/4.8.3/../../../../pic32mx/lib\libpic32.a(_mon_putc.o)
 .bss           0x00000000        0x0 c:/program files (x86)/microchip/xc32/v1.40/bin/bin/../../lib/gcc/pic32mx/4.8.3/../../../../pic32mx/lib\libpic32.a(_mon_putc.o)
 .reginfo       0x00000000       0x18 c:/program files (x86)/microchip/xc32/v1.40/bin/bin/../../lib/gcc/pic32mx/4.8.3/../../../../pic32mx/lib\libpic32.a(_mon_putc.o)
 .text          0x00000000        0x0 c:/program files (x86)/microchip/xc32/v1.40/bin/bin/../../lib/gcc/pic32mx/4.8.3/../../../../pic32mx/lib\libpic32.a(xc32_uart.o)
 .data          0x00000000        0x0 c:/program files (x86)/microchip/xc32/v1.40/bin/bin/../../lib/gcc/pic32mx/4.8.3/../../../../pic32mx/lib\libpic32.a(xc32_uart.o)
 .bss           0x00000000        0x0 c:/program files (x86)/microchip/xc32/v1.40/bin/bin/../../lib/gcc/pic32mx/4.8.3/../../../../pic32mx/lib\libpic32.a(xc32_uart.o)
 .reginfo       0x00000000       0x18 c:/program files (x86)/microchip/xc32/v1.40/bin/bin/../../lib/gcc/pic32mx/4.8.3/../../../../pic32mx/lib\libpic32.a(xc32_uart.o)
 .text          0x00000000        0x0 c:/program files (x86)/microchip/xc32/v1.40/bin/bin/../../lib/gcc/pic32mx/4.8.3/../../../../pic32mx/lib\libm.a(fp32div.o)
 .data          0x00000000        0x0 c:/program files (x86)/microchip/xc32/v1.40/bin/bin/../../lib/gcc/pic32mx/4.8.3/../../../../pic32mx/lib\libm.a(fp32div.o)
 .bss           0x00000000        0x0 c:/program files (x86)/microchip/xc32/v1.40/bin/bin/../../lib/gcc/pic32mx/4.8.3/../../../../pic32mx/lib\libm.a(fp32div.o)
 .reginfo       0x00000000       0x18 c:/program files (x86)/microchip/xc32/v1.40/bin/bin/../../lib/gcc/pic32mx/4.8.3/../../../../pic32mx/lib\libm.a(fp32div.o)
 .text          0x00000000        0x0 c:/program files (x86)/microchip/xc32/v1.40/bin/bin/../../lib/gcc/pic32mx/4.8.3/../../../../pic32mx/lib\libm.a(fp32mul.o)
 .data          0x00000000        0x0 c:/program files (x86)/microchip/xc32/v1.40/bin/bin/../../lib/gcc/pic32mx/4.8.3/../../../../pic32mx/lib\libm.a(fp32mul.o)
 .bss           0x00000000        0x0 c:/program files (x86)/microchip/xc32/v1.40/bin/bin/../../lib/gcc/pic32mx/4.8.3/../../../../pic32mx/lib\libm.a(fp32mul.o)
 .reginfo       0x00000000       0x18 c:/program files (x86)/microchip/xc32/v1.40/bin/bin/../../lib/gcc/pic32mx/4.8.3/../../../../pic32mx/lib\libm.a(fp32mul.o)
 .text          0x00000000        0x0 c:/program files (x86)/microchip/xc32/v1.40/bin/bin/../../lib/gcc/pic32mx/4.8.3/../../../../pic32mx/lib\libm.a(fp32subadd.o)
 .data          0x00000000        0x0 c:/program files (x86)/microchip/xc32/v1.40/bin/bin/../../lib/gcc/pic32mx/4.8.3/../../../../pic32mx/lib\libm.a(fp32subadd.o)
 .bss           0x00000000        0x0 c:/program files (x86)/microchip/xc32/v1.40/bin/bin/../../lib/gcc/pic32mx/4.8.3/../../../../pic32mx/lib\libm.a(fp32subadd.o)
 .reginfo       0x00000000       0x18 c:/program files (x86)/microchip/xc32/v1.40/bin/bin/../../lib/gcc/pic32mx/4.8.3/../../../../pic32mx/lib\libm.a(fp32subadd.o)
 .text          0x00000000        0x0 c:/program files (x86)/microchip/xc32/v1.40/bin/bin/../../lib/gcc/pic32mx/4.8.3/../../../../pic32mx/lib\libm.a(fpcmp.o)
 .data          0x00000000        0x0 c:/program files (x86)/microchip/xc32/v1.40/bin/bin/../../lib/gcc/pic32mx/4.8.3/../../../../pic32mx/lib\libm.a(fpcmp.o)
 .bss           0x00000000        0x0 c:/program files (x86)/microchip/xc32/v1.40/bin/bin/../../lib/gcc/pic32mx/4.8.3/../../../../pic32mx/lib\libm.a(fpcmp.o)
 .reginfo       0x00000000       0x18 c:/program files (x86)/microchip/xc32/v1.40/bin/bin/../../lib/gcc/pic32mx/4.8.3/../../../../pic32mx/lib\libm.a(fpcmp.o)
 .text          0x00000000        0x0 c:/program files (x86)/microchip/xc32/v1.40/bin/bin/../../lib/gcc/pic32mx/4.8.3/../../../../pic32mx/lib\libm.a(fpfrexp.o)
 .data          0x00000000        0x0 c:/program files (x86)/microchip/xc32/v1.40/bin/bin/../../lib/gcc/pic32mx/4.8.3/../../../../pic32mx/lib\libm.a(fpfrexp.o)
 .bss           0x00000000        0x0 c:/program files (x86)/microchip/xc32/v1.40/bin/bin/../../lib/gcc/pic32mx/4.8.3/../../../../pic32mx/lib\libm.a(fpfrexp.o)
 .reginfo       0x00000000       0x18 c:/program files (x86)/microchip/xc32/v1.40/bin/bin/../../lib/gcc/pic32mx/4.8.3/../../../../pic32mx/lib\libm.a(fpfrexp.o)
 .text          0x00000000        0x0 c:/program files (x86)/microchip/xc32/v1.40/bin/bin/../../lib/gcc/pic32mx/4.8.3/../../../../pic32mx/lib\libm.a(fptoul.o)
 .data          0x00000000        0x0 c:/program files (x86)/microchip/xc32/v1.40/bin/bin/../../lib/gcc/pic32mx/4.8.3/../../../../pic32mx/lib\libm.a(fptoul.o)
 .bss           0x00000000        0x0 c:/program files (x86)/microchip/xc32/v1.40/bin/bin/../../lib/gcc/pic32mx/4.8.3/../../../../pic32mx/lib\libm.a(fptoul.o)
 .reginfo       0x00000000       0x18 c:/program files (x86)/microchip/xc32/v1.40/bin/bin/../../lib/gcc/pic32mx/4.8.3/../../../../pic32mx/lib\libm.a(fptoul.o)
 .text          0x00000000        0x0 c:/program files (x86)/microchip/xc32/v1.40/bin/bin/../../lib/gcc/pic32mx/4.8.3/../../../../pic32mx/lib\libe.a(_floatdisf.o)
 .data          0x00000000        0x0 c:/program files (x86)/microchip/xc32/v1.40/bin/bin/../../lib/gcc/pic32mx/4.8.3/../../../../pic32mx/lib\libe.a(_floatdisf.o)
 .bss           0x00000000        0x0 c:/program files (x86)/microchip/xc32/v1.40/bin/bin/../../lib/gcc/pic32mx/4.8.3/../../../../pic32mx/lib\libe.a(_floatdisf.o)
 .reginfo       0x00000000       0x18 c:/program files (x86)/microchip/xc32/v1.40/bin/bin/../../lib/gcc/pic32mx/4.8.3/../../../../pic32mx/lib\libe.a(_floatdisf.o)
 .data          0x00000000        0x0 c:/program files (x86)/microchip/xc32/v1.40/bin/bin/../../lib/gcc/pic32mx/4.8.3\libgcc.a(_umoddi3.o)
 .bss           0x00000000        0x0 c:/program files (x86)/microchip/xc32/v1.40/bin/bin/../../lib/gcc/pic32mx/4.8.3\libgcc.a(_umoddi3.o)
 .reginfo       0x00000000       0x18 c:/program files (x86)/microchip/xc32/v1.40/bin/bin/../../lib/gcc/pic32mx/4.8.3\libgcc.a(_umoddi3.o)
 .data          0x00000000        0x0 c:/program files (x86)/microchip/xc32/v1.40/bin/bin/../../lib/gcc/pic32mx/4.8.3\libgcc.a(floatunsisf.o)
 .bss           0x00000000        0x0 c:/program files (x86)/microchip/xc32/v1.40/bin/bin/../../lib/gcc/pic32mx/4.8.3\libgcc.a(floatunsisf.o)
 .reginfo       0x00000000       0x18 c:/program files (x86)/microchip/xc32/v1.40/bin/bin/../../lib/gcc/pic32mx/4.8.3\libgcc.a(floatunsisf.o)
 .text          0x00000000        0x0 c:/program files (x86)/microchip/xc32/v1.40/bin/bin/../../lib/gcc/pic32mx/4.8.3/../../../../pic32mx/lib\libm.a(sitofp.o)
 .data          0x00000000        0x0 c:/program files (x86)/microchip/xc32/v1.40/bin/bin/../../lib/gcc/pic32mx/4.8.3/../../../../pic32mx/lib\libm.a(sitofp.o)
 .bss           0x00000000        0x0 c:/program files (x86)/microchip/xc32/v1.40/bin/bin/../../lib/gcc/pic32mx/4.8.3/../../../../pic32mx/lib\libm.a(sitofp.o)
 .reginfo       0x00000000       0x18 c:/program files (x86)/microchip/xc32/v1.40/bin/bin/../../lib/gcc/pic32mx/4.8.3/../../../../pic32mx/lib\libm.a(sitofp.o)

Memory Configuration

Name             Origin             Length             Attributes
kseg0_program_mem 0x9d000000         0x00200000         xr
kseg0_boot_mem   0x9fc004b0         0x00000000
kseg1_boot_mem   0xbfc00000         0x00000480
kseg1_boot_mem_4B0 0xbfc004b0         0x0000fa50
config_BFC0FF40  0xbfc0ff40         0x00000004
config_BFC0FF44  0xbfc0ff44         0x00000004
config_BFC0FF48  0xbfc0ff48         0x00000004
config_BFC0FF4C  0xbfc0ff4c         0x00000004
config_BFC0FF50  0xbfc0ff50         0x00000004
config_BFC0FF54  0xbfc0ff54         0x00000004
config_BFC0FF58  0xbfc0ff58         0x00000004
config_BFC0FF5C  0xbfc0ff5c         0x00000004
config_BFC0FF60  0xbfc0ff60         0x00000004
config_BFC0FF64  0xbfc0ff64         0x00000004
config_BFC0FF68  0xbfc0ff68         0x00000004
config_BFC0FF6C  0xbfc0ff6c         0x00000004
config_BFC0FF70  0xbfc0ff70         0x00000004
config_BFC0FF74  0xbfc0ff74         0x00000004
config_BFC0FF78  0xbfc0ff78         0x00000004
config_BFC0FF7C  0xbfc0ff7c         0x00000004
config_BFC0FFC0  0xbfc0ffc0         0x00000004
config_BFC0FFC4  0xbfc0ffc4         0x00000004
config_BFC0FFC8  0xbfc0ffc8         0x00000004
config_BFC0FFCC  0xbfc0ffcc         0x00000004
config_BFC0FFD0  0xbfc0ffd0         0x00000004
config_BFC0FFD4  0xbfc0ffd4         0x00000004
config_BFC0FFD8  0xbfc0ffd8         0x00000004
config_BFC0FFDC  0xbfc0ffdc         0x00000004
config_BFC0FFE0  0xbfc0ffe0         0x00000004
config_BFC0FFE4  0xbfc0ffe4         0x00000004
config_BFC0FFE8  0xbfc0ffe8         0x00000004
config_BFC0FFEC  0xbfc0ffec         0x00000004
config_BFC0FFF0  0xbfc0fff0         0x00000004
config_BFC0FFF4  0xbfc0fff4         0x00000004
config_BFC0FFF8  0xbfc0fff8         0x00000004
config_BFC0FFFC  0xbfc0fffc         0x00000004
lowerbootaliaslastpage 0xbfc10000         0x00004000
upperbootalias   0xbfc20000         0x0000ff00
config_BFC2FF40  0xbfc2ff40         0x00000004
config_BFC2FF44  0xbfc2ff44         0x00000004
config_BFC2FF48  0xbfc2ff48         0x00000004
config_BFC2FF4C  0xbfc2ff4c         0x00000004
config_BFC2FF50  0xbfc2ff50         0x00000004
config_BFC2FF54  0xbfc2ff54         0x00000004
config_BFC2FF58  0xbfc2ff58         0x00000004
config_BFC2FF5C  0xbfc2ff5c         0x00000004
config_BFC2FF60  0xbfc2ff60         0x00000004
config_BFC2FF64  0xbfc2ff64         0x00000004
config_BFC2FF68  0xbfc2ff68         0x00000004
config_BFC2FF6C  0xbfc2ff6c         0x00000004
config_BFC2FF70  0xbfc2ff70         0x00000004
config_BFC2FF74  0xbfc2ff74         0x00000004
config_BFC2FF78  0xbfc2ff78         0x00000004
config_BFC2FF7C  0xbfc2ff7c         0x00000004
config_BFC2FFC0  0xbfc2ffc0         0x00000004
config_BFC2FFC4  0xbfc2ffc4         0x00000004
config_BFC2FFC8  0xbfc2ffc8         0x00000004
config_BFC2FFCC  0xbfc2ffcc         0x00000004
config_BFC2FFD0  0xbfc2ffd0         0x00000004
config_BFC2FFD4  0xbfc2ffd4         0x00000004
config_BFC2FFD8  0xbfc2ffd8         0x00000004
config_BFC2FFDC  0xbfc2ffdc         0x00000004
config_BFC2FFE0  0xbfc2ffe0         0x00000004
config_BFC2FFE4  0xbfc2ffe4         0x00000004
config_BFC2FFE8  0xbfc2ffe8         0x00000004
config_BFC2FFEC  0xbfc2ffec         0x00000004
config_BFC2FFF0  0xbfc2fff0         0x00000004
config_BFC2FFF4  0xbfc2fff4         0x00000004
config_BFC2FFF8  0xbfc2fff8         0x00000004
config_BFC2FFFC  0xbfc2fffc         0x00000004
upperbootaliaslastpage 0xbfc30000         0x00004000
boot1            0xbfc40000         0x0000ff00
config_BFC4FF40  0xbfc4ff40         0x00000004
config_BFC4FF44  0xbfc4ff44         0x00000004
config_BFC4FF48  0xbfc4ff48         0x00000004
config_BFC4FF4C  0xbfc4ff4c         0x00000004
config_BFC4FF50  0xbfc4ff50         0x00000004
config_BFC4FF54  0xbfc4ff54         0x00000004
config_BFC4FF58  0xbfc4ff58         0x00000004
config_BFC4FF5C  0xbfc4ff5c         0x00000004
config_BFC4FF60  0xbfc4ff60         0x00000004
config_BFC4FF64  0xbfc4ff64         0x00000004
config_BFC4FF68  0xbfc4ff68         0x00000004
config_BFC4FF6C  0xbfc4ff6c         0x00000004
config_BFC4FF70  0xbfc4ff70         0x00000004
config_BFC4FF74  0xbfc4ff74         0x00000004
config_BFC4FF78  0xbfc4ff78         0x00000004
config_BFC4FF7C  0xbfc4ff7c         0x00000004
config_BFC4FFC0  0xbfc4ffc0         0x00000004
config_BFC4FFC4  0xbfc4ffc4         0x00000004
config_BFC4FFC8  0xbfc4ffc8         0x00000004
config_BFC4FFCC  0xbfc4ffcc         0x00000004
config_BFC4FFD0  0xbfc4ffd0         0x00000004
config_BFC4FFD4  0xbfc4ffd4         0x00000004
config_BFC4FFD8  0xbfc4ffd8         0x00000004
config_BFC4FFDC  0xbfc4ffdc         0x00000004
config_BFC4FFE0  0xbfc4ffe0         0x00000004
config_BFC4FFE4  0xbfc4ffe4         0x00000004
config_BFC4FFE8  0xbfc4ffe8         0x00000004
config_BFC4FFEC  0xbfc4ffec         0x00000004
config_BFC4FFF0  0xbfc4fff0         0x00000004
config_BFC4FFF4  0xbfc4fff4         0x00000004
config_BFC4FFF8  0xbfc4fff8         0x00000004
config_BFC4FFFC  0xbfc4fffc         0x00000004
boot1lastpage    0xbfc50000         0x00004000
config_BFC54000  0xbfc54000         0x00000004
config_BFC54004  0xbfc54004         0x00000004
config_BFC54008  0xbfc54008         0x00000004
config_BFC5400C  0xbfc5400c         0x00000004
config_BFC54010  0xbfc54010         0x00000004
config_BFC54020  0xbfc54020         0x00000004
config_BFC54024  0xbfc54024         0x00000004
boot2            0xbfc60000         0x0000ff00
config_BFC6FF40  0xbfc6ff40         0x00000004
config_BFC6FF44  0xbfc6ff44         0x00000004
config_BFC6FF48  0xbfc6ff48         0x00000004
config_BFC6FF4C  0xbfc6ff4c         0x00000004
config_BFC6FF50  0xbfc6ff50         0x00000004
config_BFC6FF54  0xbfc6ff54         0x00000004
config_BFC6FF58  0xbfc6ff58         0x00000004
config_BFC6FF5C  0xbfc6ff5c         0x00000004
config_BFC6FF60  0xbfc6ff60         0x00000004
config_BFC6FF64  0xbfc6ff64         0x00000004
config_BFC6FF68  0xbfc6ff68         0x00000004
config_BFC6FF6C  0xbfc6ff6c         0x00000004
config_BFC6FF70  0xbfc6ff70         0x00000004
config_BFC6FF74  0xbfc6ff74         0x00000004
config_BFC6FF78  0xbfc6ff78         0x00000004
config_BFC6FF7C  0xbfc6ff7c         0x00000004
config_BFC6FFC0  0xbfc6ffc0         0x00000004
config_BFC6FFC4  0xbfc6ffc4         0x00000004
config_BFC6FFC8  0xbfc6ffc8         0x00000004
config_BFC6FFCC  0xbfc6ffcc         0x00000004
config_BFC6FFD0  0xbfc6ffd0         0x00000004
config_BFC6FFD4  0xbfc6ffd4         0x00000004
config_BFC6FFD8  0xbfc6ffd8         0x00000004
config_BFC6FFDC  0xbfc6ffdc         0x00000004
config_BFC6FFE0  0xbfc6ffe0         0x00000004
config_BFC6FFE4  0xbfc6ffe4         0x00000004
config_BFC6FFE8  0xbfc6ffe8         0x00000004
config_BFC6FFEC  0xbfc6ffec         0x00000004
config_BFC6FFF0  0xbfc6fff0         0x00000004
config_BFC6FFF4  0xbfc6fff4         0x00000004
config_BFC6FFF8  0xbfc6fff8         0x00000004
config_BFC6FFFC  0xbfc6fffc         0x00000004
boot2lastpage    0xbfc70000         0x00004000
kseg0_data_mem   0x80000000         0x00080000         w !x
sfrs             0xbf800000         0x00100000
configsfrs_BFC0FF40 0xbfc0ff40         0x00000040
configsfrs_BFC0FFC0 0xbfc0ffc0         0x00000040
configsfrs_BFC2FF40 0xbfc2ff40         0x00000040
configsfrs_BFC2FFC0 0xbfc2ffc0         0x00000040
configsfrs_BFC4FF40 0xbfc4ff40         0x00000040
configsfrs_BFC4FFC0 0xbfc4ffc0         0x00000040
configsfrs_BFC54000 0xbfc54000         0x00000014
configsfrs_BFC54020 0xbfc54020         0x00000008
configsfrs_BFC6FF40 0xbfc6ff40         0x00000040
configsfrs_BFC6FFC0 0xbfc6ffc0         0x00000040
kseg2_ebi_data_mem 0xc0000000         0x04000000
kseg2_sqi_data_mem 0xd0000000         0x04000000
kseg3_ebi_data_mem 0xe0000000         0x04000000
kseg3_sqi_data_mem 0xf0000000         0x04000000
*default*        0x00000000         0xffffffff

Linker script and memory map

LOAD c:/program files (x86)/microchip/xc32/v1.40/bin/bin/../../lib/gcc/pic32mx/4.8.3/../../../../pic32mx/lib/./proc/32MZ2048ECH144/crt0_mips32r2.o
LOAD c:/program files (x86)/microchip/xc32/v1.40/bin/bin/../../lib/gcc/pic32mx/4.8.3/../../../../pic32mx/lib\debug-exception-return.o
LOAD build/default/production/_ext/337818580/drv_can_static.o
LOAD build/default/production/_ext/639803181/sys_clk_static.o
LOAD build/default/production/_ext/822048611/sys_ports_static.o
LOAD build/default/production/_ext/1688732426/system_init.o
LOAD build/default/production/_ext/1688732426/system_interrupt.o
LOAD build/default/production/_ext/1688732426/system_exceptions.o
LOAD build/default/production/_ext/1688732426/system_tasks.o
LOAD build/default/production/_ext/1360937237/app.o
LOAD build/default/production/_ext/1360937237/main.o
LOAD build/default/production/_ext/1360937237/app1.o
LOAD build/default/production/_ext/1360937237/app2.o
LOAD build/default/production/_ext/660089376/bsp_sys_init.o
LOAD build/default/production/_ext/1886890887/random.o
LOAD build/default/production/_ext/1886890887/arc4.o
LOAD build/default/production/_ext/1886890887/crypto.o
LOAD build/default/production/_ext/1908841681/drv_ethmac.o
LOAD build/default/production/_ext/1908841681/drv_ethmac_lib.o
LOAD build/default/production/_ext/732687875/drv_ethphy.o
LOAD build/default/production/_ext/732687875/drv_extphy_smsc8740.o
LOAD build/default/production/_ext/185269848/drv_tmr.o
LOAD build/default/production/_ext/1271179505/sys_devcon.o
LOAD build/default/production/_ext/1271179505/sys_devcon_pic32mz.o
LOAD build/default/production/_ext/1271179505/sys_devcon_cache_pic32mz.o
LOAD build/default/production/_ext/122796885/sys_int_pic32.o
LOAD build/default/production/_ext/77319752/sys_ports.o
LOAD build/default/production/_ext/1283840359/sys_random.o
LOAD build/default/production/_ext/1264926591/sys_tmr.o
LOAD build/default/production/_ext/1136935090/big_int.o
LOAD build/default/production/_ext/1136935090/big_int_helper_c32.o
LOAD build/default/production/_ext/1136935090/hashes.o
LOAD build/default/production/_ext/1136935090/helpers.o
LOAD build/default/production/_ext/1136935090/lfsr.o
LOAD build/default/production/_ext/1408260596/tcp.o
LOAD build/default/production/_ext/1408260596/udp.o
LOAD build/default/production/_ext/1408260596/arp.o
LOAD build/default/production/_ext/1408260596/dhcp.o
LOAD build/default/production/_ext/1408260596/icmp.o
LOAD build/default/production/_ext/1408260596/nbns.o
LOAD build/default/production/_ext/1408260596/zero_conf_helper.o
LOAD build/default/production/_ext/1408260596/zero_conf_link_local.o
LOAD build/default/production/_ext/1408260596/tcpip_announce.o
LOAD build/default/production/_ext/1408260596/hash_fnv.o
LOAD build/default/production/_ext/1408260596/oahash.o
LOAD build/default/production/_ext/1408260596/tcpip_heap_alloc.o
LOAD build/default/production/_ext/1408260596/tcpip_helpers.o
LOAD build/default/production/_ext/1408260596/tcpip_helper_c32.o
LOAD build/default/production/_ext/1408260596/tcpip_manager.o
LOAD build/default/production/_ext/1408260596/tcpip_notify.o
LOAD build/default/production/_ext/1408260596/tcpip_packet.o
LOAD build/default/production/_ext/1408260596/ipv4.o
LOAD ..\..\..\..\bin\framework\peripheral\PIC32MZ2048ECH144_peripherals.a
                0x00000001                __MPLAB_BUILD = 0x1
                0x0000afa0                _min_heap_size = 0xafa0
LOAD c:/program files (x86)/microchip/xc32/v1.40/bin/bin/../../lib/gcc/pic32mx/4.8.3/../../../../pic32mx/lib/./proc/32MZ2048ECH144\default_isr_vectors.o
LOAD c:/program files (x86)/microchip/xc32/v1.40/bin/bin/../../lib/gcc/pic32mx/4.8.3/../../../../pic32mx/lib\pic32_software_reset.o
                0x00000400                PROVIDE (_min_stack_size, 0x400)
LOAD c:/program files (x86)/microchip/xc32/v1.40/bin/bin/../../lib/gcc/pic32mx/4.8.3/../../../../pic32mx/lib/./proc/32MZ2048ECH144\processor.o
START GROUP
LOAD libmchp_peripheral.a
END GROUP
START GROUP
LOAD libmchp_peripheral_32MZ2048ECH144.a
END GROUP
START GROUP
LOAD c:/program files (x86)/microchip/xc32/v1.40/bin/bin/../../lib/gcc/pic32mx/4.8.3/../../../../pic32mx/lib/./proc/32MZ2048ECH144\vector_offset_init.o
END GROUP
                0x00000001                PROVIDE (_vector_spacing, 0x1)
                0x9d000000                PROVIDE (_ebase_address, 0x9d000000)
                0xbfc00000                _RESET_ADDR = 0xbfc00000
                0xbfc00380                _BEV_EXCPT_ADDR = 0xbfc00380
                0xbfc00480                _DBG_EXCPT_ADDR = 0xbfc00480
                0x9d000000                _SIMPLE_TLB_REFILL_EXCPT_ADDR = (_ebase_address + 0x0)
                0x9d000100                _CACHE_ERR_EXCPT_ADDR = (_ebase_address + 0x100)
                0x9d000180                _GEN_EXCPT_ADDR = (_ebase_address + 0x180)

.config_BFC0FF40
 *(.config_BFC0FF40)

.config_BFC0FF44
 *(.config_BFC0FF44)

.config_BFC0FF48
 *(.config_BFC0FF48)

.config_BFC0FF4C
 *(.config_BFC0FF4C)

.config_BFC0FF50
 *(.config_BFC0FF50)

.config_BFC0FF54
 *(.config_BFC0FF54)

.config_BFC0FF58
 *(.config_BFC0FF58)

.config_BFC0FF5C
 *(.config_BFC0FF5C)

.config_BFC0FF60
 *(.config_BFC0FF60)

.config_BFC0FF64
 *(.config_BFC0FF64)

.config_BFC0FF68
 *(.config_BFC0FF68)

.config_BFC0FF6C
 *(.config_BFC0FF6C)

.config_BFC0FF70
 *(.config_BFC0FF70)

.config_BFC0FF74
 *(.config_BFC0FF74)

.config_BFC0FF78
 *(.config_BFC0FF78)

.config_BFC0FF7C
 *(.config_BFC0FF7C)

.config_BFC0FFC0
                0xbfc0ffc0        0x4
 *(.config_BFC0FFC0)
 .config_BFC0FFC0
                0xbfc0ffc0        0x4 build/default/production/_ext/1688732426/system_init.o

.config_BFC0FFC4
                0xbfc0ffc4        0x4
 *(.config_BFC0FFC4)
 .config_BFC0FFC4
                0xbfc0ffc4        0x4 build/default/production/_ext/1688732426/system_init.o

.config_BFC0FFC8
                0xbfc0ffc8        0x4
 *(.config_BFC0FFC8)
 .config_BFC0FFC8
                0xbfc0ffc8        0x4 build/default/production/_ext/1688732426/system_init.o

.config_BFC0FFCC
                0xbfc0ffcc        0x4
 *(.config_BFC0FFCC)
 .config_BFC0FFCC
                0xbfc0ffcc        0x4 build/default/production/_ext/1688732426/system_init.o

.config_BFC0FFD0
 *(.config_BFC0FFD0)

.config_BFC0FFD4
 *(.config_BFC0FFD4)

.config_BFC0FFD8
 *(.config_BFC0FFD8)

.config_BFC0FFDC
                0xbfc0ffdc        0x4
 *(.config_BFC0FFDC)
 .config_BFC0FFDC
                0xbfc0ffdc        0x4 build/default/production/_ext/1688732426/system_init.o

.config_BFC0FFE0
 *(.config_BFC0FFE0)

.config_BFC0FFE4
 *(.config_BFC0FFE4)

.config_BFC0FFE8
 *(.config_BFC0FFE8)

.config_BFC0FFEC
 *(.config_BFC0FFEC)

.config_BFC0FFF0
 *(.config_BFC0FFF0)

.config_BFC0FFF4
 *(.config_BFC0FFF4)

.config_BFC0FFF8
 *(.config_BFC0FFF8)

.config_BFC0FFFC
                0xbfc0fffc        0x4
 *(.config_BFC0FFFC)
 .config_BFC0FFFC
                0xbfc0fffc        0x4 build/default/production/_ext/1688732426/system_init.o

.config_BFC2FF40
 *(.config_BFC2FF40)

.config_BFC2FF44
 *(.config_BFC2FF44)

.config_BFC2FF48
 *(.config_BFC2FF48)

.config_BFC2FF4C
 *(.config_BFC2FF4C)

.config_BFC2FF50
 *(.config_BFC2FF50)

.config_BFC2FF54
 *(.config_BFC2FF54)

.config_BFC2FF58
 *(.config_BFC2FF58)

.config_BFC2FF5C
 *(.config_BFC2FF5C)

.config_BFC2FF60
 *(.config_BFC2FF60)

.config_BFC2FF64
 *(.config_BFC2FF64)

.config_BFC2FF68
 *(.config_BFC2FF68)

.config_BFC2FF6C
 *(.config_BFC2FF6C)

.config_BFC2FF70
 *(.config_BFC2FF70)

.config_BFC2FF74
 *(.config_BFC2FF74)

.config_BFC2FF78
 *(.config_BFC2FF78)

.config_BFC2FF7C
 *(.config_BFC2FF7C)

.config_BFC2FFC0
 *(.config_BFC2FFC0)

.config_BFC2FFC4
 *(.config_BFC2FFC4)

.config_BFC2FFC8
 *(.config_BFC2FFC8)

.config_BFC2FFCC
 *(.config_BFC2FFCC)

.config_BFC2FFD0
 *(.config_BFC2FFD0)

.config_BFC2FFD4
 *(.config_BFC2FFD4)

.config_BFC2FFD8
 *(.config_BFC2FFD8)

.config_BFC2FFDC
 *(.config_BFC2FFDC)

.config_BFC2FFE0
 *(.config_BFC2FFE0)

.config_BFC2FFE4
 *(.config_BFC2FFE4)

.config_BFC2FFE8
 *(.config_BFC2FFE8)

.config_BFC2FFEC
 *(.config_BFC2FFEC)

.config_BFC2FFF0
 *(.config_BFC2FFF0)

.config_BFC2FFF4
 *(.config_BFC2FFF4)

.config_BFC2FFF8
 *(.config_BFC2FFF8)

.config_BFC2FFFC
 *(.config_BFC2FFFC)

.config_BFC4FF40
 *(.config_BFC4FF40)

.config_BFC4FF44
 *(.config_BFC4FF44)

.config_BFC4FF48
 *(.config_BFC4FF48)

.config_BFC4FF4C
 *(.config_BFC4FF4C)

.config_BFC4FF50
 *(.config_BFC4FF50)

.config_BFC4FF54
 *(.config_BFC4FF54)

.config_BFC4FF58
 *(.config_BFC4FF58)

.config_BFC4FF5C
 *(.config_BFC4FF5C)

.config_BFC4FF60
 *(.config_BFC4FF60)

.config_BFC4FF64
 *(.config_BFC4FF64)

.config_BFC4FF68
 *(.config_BFC4FF68)

.config_BFC4FF6C
 *(.config_BFC4FF6C)

.config_BFC4FF70
 *(.config_BFC4FF70)

.config_BFC4FF74
 *(.config_BFC4FF74)

.config_BFC4FF78
 *(.config_BFC4FF78)

.config_BFC4FF7C
 *(.config_BFC4FF7C)

.config_BFC4FFC0
 *(.config_BFC4FFC0)

.config_BFC4FFC4
 *(.config_BFC4FFC4)

.config_BFC4FFC8
 *(.config_BFC4FFC8)

.config_BFC4FFCC
 *(.config_BFC4FFCC)

.config_BFC4FFD0
 *(.config_BFC4FFD0)

.config_BFC4FFD4
 *(.config_BFC4FFD4)

.config_BFC4FFD8
 *(.config_BFC4FFD8)

.config_BFC4FFDC
 *(.config_BFC4FFDC)

.config_BFC4FFE0
 *(.config_BFC4FFE0)

.config_BFC4FFE4
 *(.config_BFC4FFE4)

.config_BFC4FFE8
 *(.config_BFC4FFE8)

.config_BFC4FFEC
 *(.config_BFC4FFEC)

.config_BFC4FFF0
 *(.config_BFC4FFF0)

.config_BFC4FFF4
 *(.config_BFC4FFF4)

.config_BFC4FFF8
 *(.config_BFC4FFF8)

.config_BFC4FFFC
 *(.config_BFC4FFFC)

.config_BFC54000
 *(.config_BFC54000)

.config_BFC54004
 *(.config_BFC54004)

.config_BFC54008
 *(.config_BFC54008)

.config_BFC5400C
 *(.config_BFC5400C)

.config_BFC54010
 *(.config_BFC54010)

.config_BFC54020
 *(.config_BFC54020)

.config_BFC54024
 *(.config_BFC54024)

.config_BFC6FF40
 *(.config_BFC6FF40)

.config_BFC6FF44
 *(.config_BFC6FF44)

.config_BFC6FF48
 *(.config_BFC6FF48)

.config_BFC6FF4C
 *(.config_BFC6FF4C)

.config_BFC6FF50
 *(.config_BFC6FF50)

.config_BFC6FF54
 *(.config_BFC6FF54)

.config_BFC6FF58
 *(.config_BFC6FF58)

.config_BFC6FF5C
 *(.config_BFC6FF5C)

.config_BFC6FF60
 *(.config_BFC6FF60)

.config_BFC6FF64
 *(.config_BFC6FF64)

.config_BFC6FF68
 *(.config_BFC6FF68)

.config_BFC6FF6C
 *(.config_BFC6FF6C)

.config_BFC6FF70
 *(.config_BFC6FF70)

.config_BFC6FF74
 *(.config_BFC6FF74)

.config_BFC6FF78
 *(.config_BFC6FF78)

.config_BFC6FF7C
 *(.config_BFC6FF7C)

.config_BFC6FFC0
 *(.config_BFC6FFC0)

.config_BFC6FFC4
 *(.config_BFC6FFC4)

.config_BFC6FFC8
 *(.config_BFC6FFC8)

.config_BFC6FFCC
 *(.config_BFC6FFCC)

.config_BFC6FFD0
 *(.config_BFC6FFD0)

.config_BFC6FFD4
 *(.config_BFC6FFD4)

.config_BFC6FFD8
 *(.config_BFC6FFD8)

.config_BFC6FFDC
 *(.config_BFC6FFDC)

.config_BFC6FFE0
 *(.config_BFC6FFE0)

.config_BFC6FFE4
 *(.config_BFC6FFE4)

.config_BFC6FFE8
 *(.config_BFC6FFE8)

.config_BFC6FFEC
 *(.config_BFC6FFEC)

.config_BFC6FFF0
 *(.config_BFC6FFF0)

.config_BFC6FFF4
 *(.config_BFC6FFF4)

.config_BFC6FFF8
 *(.config_BFC6FFF8)

.config_BFC6FFFC
 *(.config_BFC6FFFC)

.reset          0xbfc00000      0x1fc
 *(.reset)
 .reset         0xbfc00000       0x18 c:/program files (x86)/microchip/xc32/v1.40/bin/bin/../../lib/gcc/pic32mx/4.8.3/../../../../pic32mx/lib/./proc/32MZ2048ECH144/crt0_mips32r2.o
                0xbfc00000                _reset
 *(.reset.startup)
 .reset.startup
                0xbfc00018      0x1e4 c:/program files (x86)/microchip/xc32/v1.40/bin/bin/../../lib/gcc/pic32mx/4.8.3/../../../../pic32mx/lib/./proc/32MZ2048ECH144/crt0_mips32r2.o

.bev_excpt      0xbfc00380       0x10
 *(.bev_handler)
 .bev_handler   0xbfc00380       0x10 c:/program files (x86)/microchip/xc32/v1.40/bin/bin/../../lib/gcc/pic32mx/4.8.3/../../../../pic32mx/lib/./proc/32MZ2048ECH144/crt0_mips32r2.o

.cache_init     0xbfc004b0      0x19c
 *(.cache_init)
 *(.cache_init.*)
 .cache_init.cache
                0xbfc004b0       0xc0 c:/program files (x86)/microchip/xc32/v1.40/bin/bin/../../lib/gcc/pic32mx/4.8.3/../../../../pic32mx/lib\libpic32.a(pic32_init_cache.o)
 .cache_init.pic32_init_cache
                0xbfc00570       0xdc c:/program files (x86)/microchip/xc32/v1.40/bin/bin/../../lib/gcc/pic32mx/4.8.3/../../../../pic32mx/lib\libpic32.a(pic32_init_cache.o)
                0xbfc00570                __pic32_init_cache

.simple_tlb_refill_excpt
                0x9d000000       0x10
 *(.simple_tlb_refill_vector)
 .simple_tlb_refill_vector
                0x9d000000       0x10 c:/program files (x86)/microchip/xc32/v1.40/bin/bin/../../lib/gcc/pic32mx/4.8.3/../../../../pic32mx/lib/./proc/32MZ2048ECH144/crt0_mips32r2.o

.cache_err_excpt
                0x9d000100       0x10
 *(.cache_err_vector)
 .cache_err_vector
                0x9d000100       0x10 c:/program files (x86)/microchip/xc32/v1.40/bin/bin/../../lib/gcc/pic32mx/4.8.3/../../../../pic32mx/lib/./proc/32MZ2048ECH144/crt0_mips32r2.o

.app_excpt      0x9d000180       0x10
 *(.gen_handler)
 .gen_handler   0x9d000180       0x10 c:/program files (x86)/microchip/xc32/v1.40/bin/bin/../../lib/gcc/pic32mx/4.8.3/../../../../pic32mx/lib/./proc/32MZ2048ECH144/crt0_mips32r2.o

.vectors        0x9d000200       0x60
                0x00000218                __vector_offset_0 = DEFINED (__vector_dispatch_0)?(. - _ebase_address):__vector_offset_default
 *(.vector_0)
                0x00000218                __vector_offset_1 = DEFINED (__vector_dispatch_1)?(. - _ebase_address):__vector_offset_default
 *(.vector_1)
                0x00000218                __vector_offset_2 = DEFINED (__vector_dispatch_2)?(. - _ebase_address):__vector_offset_default
 *(.vector_2)
                0x00000218                __vector_offset_3 = DEFINED (__vector_dispatch_3)?(. - _ebase_address):__vector_offset_default
 *(.vector_3)
                0x00000200                __vector_offset_4 = DEFINED (__vector_dispatch_4)?(. - _ebase_address):__vector_offset_default
 *(.vector_4)
 .vector_4      0x9d000200        0x8 build/default/production/_ext/1688732426/system_interrupt.o
                0x9d000200                __vector_dispatch_4
                0x00000218                __vector_offset_5 = DEFINED (__vector_dispatch_5)?(. - _ebase_address):__vector_offset_default
 *(.vector_5)
                0x00000218                __vector_offset_6 = DEFINED (__vector_dispatch_6)?(. - _ebase_address):__vector_offset_default
 *(.vector_6)
                0x00000218                __vector_offset_7 = DEFINED (__vector_dispatch_7)?(. - _ebase_address):__vector_offset_default
 *(.vector_7)
                0x00000218                __vector_offset_8 = DEFINED (__vector_dispatch_8)?(. - _ebase_address):__vector_offset_default
 *(.vector_8)
                0x00000218                __vector_offset_9 = DEFINED (__vector_dispatch_9)?(. - _ebase_address):__vector_offset_default
 *(.vector_9)
                0x00000218                __vector_offset_10 = DEFINED (__vector_dispatch_10)?(. - _ebase_address):__vector_offset_default
 *(.vector_10)
                0x00000218                __vector_offset_11 = DEFINED (__vector_dispatch_11)?(. - _ebase_address):__vector_offset_default
 *(.vector_11)
                0x00000218                __vector_offset_12 = DEFINED (__vector_dispatch_12)?(. - _ebase_address):__vector_offset_default
 *(.vector_12)
                0x00000218                __vector_offset_13 = DEFINED (__vector_dispatch_13)?(. - _ebase_address):__vector_offset_default
 *(.vector_13)
                0x00000218                __vector_offset_14 = DEFINED (__vector_dispatch_14)?(. - _ebase_address):__vector_offset_default
 *(.vector_14)
                0x00000218                __vector_offset_15 = DEFINED (__vector_dispatch_15)?(. - _ebase_address):__vector_offset_default
 *(.vector_15)
                0x00000218                __vector_offset_16 = DEFINED (__vector_dispatch_16)?(. - _ebase_address):__vector_offset_default
 *(.vector_16)
                0x00000218                __vector_offset_17 = DEFINED (__vector_dispatch_17)?(. - _ebase_address):__vector_offset_default
 *(.vector_17)
                0x00000218                __vector_offset_18 = DEFINED (__vector_dispatch_18)?(. - _ebase_address):__vector_offset_default
 *(.vector_18)
                0x00000218                __vector_offset_19 = DEFINED (__vector_dispatch_19)?(. - _ebase_address):__vector_offset_default
 *(.vector_19)
                0x00000218                __vector_offset_20 = DEFINED (__vector_dispatch_20)?(. - _ebase_address):__vector_offset_default
 *(.vector_20)
                0x00000218                __vector_offset_21 = DEFINED (__vector_dispatch_21)?(. - _ebase_address):__vector_offset_default
 *(.vector_21)
                0x00000218                __vector_offset_22 = DEFINED (__vector_dispatch_22)?(. - _ebase_address):__vector_offset_default
 *(.vector_22)
                0x00000218                __vector_offset_23 = DEFINED (__vector_dispatch_23)?(. - _ebase_address):__vector_offset_default
 *(.vector_23)
                0x00000218                __vector_offset_24 = DEFINED (__vector_dispatch_24)?(. - _ebase_address):__vector_offset_default
 *(.vector_24)
                0x00000218                __vector_offset_25 = DEFINED (__vector_dispatch_25)?(. - _ebase_address):__vector_offset_default
 *(.vector_25)
                0x00000218                __vector_offset_26 = DEFINED (__vector_dispatch_26)?(. - _ebase_address):__vector_offset_default
 *(.vector_26)
                0x00000218                __vector_offset_27 = DEFINED (__vector_dispatch_27)?(. - _ebase_address):__vector_offset_default
 *(.vector_27)
                0x00000218                __vector_offset_28 = DEFINED (__vector_dispatch_28)?(. - _ebase_address):__vector_offset_default
 *(.vector_28)
                0x00000218                __vector_offset_29 = DEFINED (__vector_dispatch_29)?(. - _ebase_address):__vector_offset_default
 *(.vector_29)
                0x00000218                __vector_offset_30 = DEFINED (__vector_dispatch_30)?(. - _ebase_address):__vector_offset_default
 *(.vector_30)
                0x00000218                __vector_offset_31 = DEFINED (__vector_dispatch_31)?(. - _ebase_address):__vector_offset_default
 *(.vector_31)
                0x00000218                __vector_offset_32 = DEFINED (__vector_dispatch_32)?(. - _ebase_address):__vector_offset_default
 *(.vector_32)
                0x00000218                __vector_offset_33 = DEFINED (__vector_dispatch_33)?(. - _ebase_address):__vector_offset_default
 *(.vector_33)
                0x00000218                __vector_offset_34 = DEFINED (__vector_dispatch_34)?(. - _ebase_address):__vector_offset_default
 *(.vector_34)
                0x00000218                __vector_offset_35 = DEFINED (__vector_dispatch_35)?(. - _ebase_address):__vector_offset_default
 *(.vector_35)
                0x00000218                __vector_offset_36 = DEFINED (__vector_dispatch_36)?(. - _ebase_address):__vector_offset_default
 *(.vector_36)
                0x00000218                __vector_offset_37 = DEFINED (__vector_dispatch_37)?(. - _ebase_address):__vector_offset_default
 *(.vector_37)
                0x00000218                __vector_offset_38 = DEFINED (__vector_dispatch_38)?(. - _ebase_address):__vector_offset_default
 *(.vector_38)
                0x00000218                __vector_offset_39 = DEFINED (__vector_dispatch_39)?(. - _ebase_address):__vector_offset_default
 *(.vector_39)
                0x00000218                __vector_offset_40 = DEFINED (__vector_dispatch_40)?(. - _ebase_address):__vector_offset_default
 *(.vector_40)
                0x00000218                __vector_offset_41 = DEFINED (__vector_dispatch_41)?(. - _ebase_address):__vector_offset_default
 *(.vector_41)
                0x00000218                __vector_offset_42 = DEFINED (__vector_dispatch_42)?(. - _ebase_address):__vector_offset_default
 *(.vector_42)
                0x00000218                __vector_offset_43 = DEFINED (__vector_dispatch_43)?(. - _ebase_address):__vector_offset_default
 *(.vector_43)
                0x00000218                __vector_offset_44 = DEFINED (__vector_dispatch_44)?(. - _ebase_address):__vector_offset_default
 *(.vector_44)
                0x00000218                __vector_offset_45 = DEFINED (__vector_dispatch_45)?(. - _ebase_address):__vector_offset_default
 *(.vector_45)
                0x00000218                __vector_offset_46 = DEFINED (__vector_dispatch_46)?(. - _ebase_address):__vector_offset_default
 *(.vector_46)
                0x00000218                __vector_offset_47 = DEFINED (__vector_dispatch_47)?(. - _ebase_address):__vector_offset_default
 *(.vector_47)
                0x00000218                __vector_offset_48 = DEFINED (__vector_dispatch_48)?(. - _ebase_address):__vector_offset_default
 *(.vector_48)
                0x00000218                __vector_offset_49 = DEFINED (__vector_dispatch_49)?(. - _ebase_address):__vector_offset_default
 *(.vector_49)
                0x00000218                __vector_offset_50 = DEFINED (__vector_dispatch_50)?(. - _ebase_address):__vector_offset_default
 *(.vector_50)
                0x00000218                __vector_offset_51 = DEFINED (__vector_dispatch_51)?(. - _ebase_address):__vector_offset_default
 *(.vector_51)
                0x00000218                __vector_offset_52 = DEFINED (__vector_dispatch_52)?(. - _ebase_address):__vector_offset_default
 *(.vector_52)
                0x00000218                __vector_offset_53 = DEFINED (__vector_dispatch_53)?(. - _ebase_address):__vector_offset_default
 *(.vector_53)
                0x00000218                __vector_offset_54 = DEFINED (__vector_dispatch_54)?(. - _ebase_address):__vector_offset_default
 *(.vector_54)
                0x00000218                __vector_offset_55 = DEFINED (__vector_dispatch_55)?(. - _ebase_address):__vector_offset_default
 *(.vector_55)
                0x00000218                __vector_offset_56 = DEFINED (__vector_dispatch_56)?(. - _ebase_address):__vector_offset_default
 *(.vector_56)
                0x00000218                __vector_offset_57 = DEFINED (__vector_dispatch_57)?(. - _ebase_address):__vector_offset_default
 *(.vector_57)
                0x00000218                __vector_offset_58 = DEFINED (__vector_dispatch_58)?(. - _ebase_address):__vector_offset_default
 *(.vector_58)
                0x00000218                __vector_offset_59 = DEFINED (__vector_dispatch_59)?(. - _ebase_address):__vector_offset_default
 *(.vector_59)
                0x00000218                __vector_offset_60 = DEFINED (__vector_dispatch_60)?(. - _ebase_address):__vector_offset_default
 *(.vector_60)
                0x00000218                __vector_offset_61 = DEFINED (__vector_dispatch_61)?(. - _ebase_address):__vector_offset_default
 *(.vector_61)
                0x00000218                __vector_offset_62 = DEFINED (__vector_dispatch_62)?(. - _ebase_address):__vector_offset_default
 *(.vector_62)
                0x00000218                __vector_offset_63 = DEFINED (__vector_dispatch_63)?(. - _ebase_address):__vector_offset_default
 *(.vector_63)
                0x00000218                __vector_offset_64 = DEFINED (__vector_dispatch_64)?(. - _ebase_address):__vector_offset_default
 *(.vector_64)
                0x00000218                __vector_offset_65 = DEFINED (__vector_dispatch_65)?(. - _ebase_address):__vector_offset_default
 *(.vector_65)
                0x00000218                __vector_offset_66 = DEFINED (__vector_dispatch_66)?(. - _ebase_address):__vector_offset_default
 *(.vector_66)
                0x00000218                __vector_offset_67 = DEFINED (__vector_dispatch_67)?(. - _ebase_address):__vector_offset_default
 *(.vector_67)
                0x00000218                __vector_offset_68 = DEFINED (__vector_dispatch_68)?(. - _ebase_address):__vector_offset_default
 *(.vector_68)
                0x00000218                __vector_offset_69 = DEFINED (__vector_dispatch_69)?(. - _ebase_address):__vector_offset_default
 *(.vector_69)
                0x00000218                __vector_offset_70 = DEFINED (__vector_dispatch_70)?(. - _ebase_address):__vector_offset_default
 *(.vector_70)
                0x00000218                __vector_offset_71 = DEFINED (__vector_dispatch_71)?(. - _ebase_address):__vector_offset_default
 *(.vector_71)
                0x00000218                __vector_offset_72 = DEFINED (__vector_dispatch_72)?(. - _ebase_address):__vector_offset_default
 *(.vector_72)
                0x00000218                __vector_offset_73 = DEFINED (__vector_dispatch_73)?(. - _ebase_address):__vector_offset_default
 *(.vector_73)
                0x00000218                __vector_offset_74 = DEFINED (__vector_dispatch_74)?(. - _ebase_address):__vector_offset_default
 *(.vector_74)
                0x00000218                __vector_offset_75 = DEFINED (__vector_dispatch_75)?(. - _ebase_address):__vector_offset_default
 *(.vector_75)
                0x00000218                __vector_offset_76 = DEFINED (__vector_dispatch_76)?(. - _ebase_address):__vector_offset_default
 *(.vector_76)
                0x00000218                __vector_offset_77 = DEFINED (__vector_dispatch_77)?(. - _ebase_address):__vector_offset_default
 *(.vector_77)
                0x00000218                __vector_offset_78 = DEFINED (__vector_dispatch_78)?(. - _ebase_address):__vector_offset_default
 *(.vector_78)
                0x00000218                __vector_offset_79 = DEFINED (__vector_dispatch_79)?(. - _ebase_address):__vector_offset_default
 *(.vector_79)
                0x00000218                __vector_offset_80 = DEFINED (__vector_dispatch_80)?(. - _ebase_address):__vector_offset_default
 *(.vector_80)
                0x00000218                __vector_offset_81 = DEFINED (__vector_dispatch_81)?(. - _ebase_address):__vector_offset_default
 *(.vector_81)
                0x00000218                __vector_offset_82 = DEFINED (__vector_dispatch_82)?(. - _ebase_address):__vector_offset_default
 *(.vector_82)
                0x00000218                __vector_offset_83 = DEFINED (__vector_dispatch_83)?(. - _ebase_address):__vector_offset_default
 *(.vector_83)
                0x00000218                __vector_offset_84 = DEFINED (__vector_dispatch_84)?(. - _ebase_address):__vector_offset_default
 *(.vector_84)
                0x00000218                __vector_offset_85 = DEFINED (__vector_dispatch_85)?(. - _ebase_address):__vector_offset_default
 *(.vector_85)
                0x00000218                __vector_offset_86 = DEFINED (__vector_dispatch_86)?(. - _ebase_address):__vector_offset_default
 *(.vector_86)
                0x00000218                __vector_offset_87 = DEFINED (__vector_dispatch_87)?(. - _ebase_address):__vector_offset_default
 *(.vector_87)
                0x00000218                __vector_offset_88 = DEFINED (__vector_dispatch_88)?(. - _ebase_address):__vector_offset_default
 *(.vector_88)
                0x00000218                __vector_offset_89 = DEFINED (__vector_dispatch_89)?(. - _ebase_address):__vector_offset_default
 *(.vector_89)
                0x00000218                __vector_offset_90 = DEFINED (__vector_dispatch_90)?(. - _ebase_address):__vector_offset_default
 *(.vector_90)
                0x00000218                __vector_offset_91 = DEFINED (__vector_dispatch_91)?(. - _ebase_address):__vector_offset_default
 *(.vector_91)
                0x00000218                __vector_offset_92 = DEFINED (__vector_dispatch_92)?(. - _ebase_address):__vector_offset_default
 *(.vector_92)
                0x00000218                __vector_offset_93 = DEFINED (__vector_dispatch_93)?(. - _ebase_address):__vector_offset_default
 *(.vector_93)
                0x00000218                __vector_offset_94 = DEFINED (__vector_dispatch_94)?(. - _ebase_address):__vector_offset_default
 *(.vector_94)
                0x00000218                __vector_offset_95 = DEFINED (__vector_dispatch_95)?(. - _ebase_address):__vector_offset_default
 *(.vector_95)
                0x00000218                __vector_offset_96 = DEFINED (__vector_dispatch_96)?(. - _ebase_address):__vector_offset_default
 *(.vector_96)
                0x00000218                __vector_offset_97 = DEFINED (__vector_dispatch_97)?(. - _ebase_address):__vector_offset_default
 *(.vector_97)
                0x00000218                __vector_offset_98 = DEFINED (__vector_dispatch_98)?(. - _ebase_address):__vector_offset_default
 *(.vector_98)
                0x00000218                __vector_offset_99 = DEFINED (__vector_dispatch_99)?(. - _ebase_address):__vector_offset_default
 *(.vector_99)
                0x00000218                __vector_offset_100 = DEFINED (__vector_dispatch_100)?(. - _ebase_address):__vector_offset_default
 *(.vector_100)
                0x00000218                __vector_offset_101 = DEFINED (__vector_dispatch_101)?(. - _ebase_address):__vector_offset_default
 *(.vector_101)
                0x00000218                __vector_offset_102 = DEFINED (__vector_dispatch_102)?(. - _ebase_address):__vector_offset_default
 *(.vector_102)
                0x00000218                __vector_offset_103 = DEFINED (__vector_dispatch_103)?(. - _ebase_address):__vector_offset_default
 *(.vector_103)
                0x00000218                __vector_offset_104 = DEFINED (__vector_dispatch_104)?(. - _ebase_address):__vector_offset_default
 *(.vector_104)
                0x00000218                __vector_offset_105 = DEFINED (__vector_dispatch_105)?(. - _ebase_address):__vector_offset_default
 *(.vector_105)
                0x00000218                __vector_offset_106 = DEFINED (__vector_dispatch_106)?(. - _ebase_address):__vector_offset_default
 *(.vector_106)
                0x00000218                __vector_offset_107 = DEFINED (__vector_dispatch_107)?(. - _ebase_address):__vector_offset_default
 *(.vector_107)
                0x00000218                __vector_offset_108 = DEFINED (__vector_dispatch_108)?(. - _ebase_address):__vector_offset_default
 *(.vector_108)
                0x00000218                __vector_offset_109 = DEFINED (__vector_dispatch_109)?(. - _ebase_address):__vector_offset_default
 *(.vector_109)
                0x00000218                __vector_offset_110 = DEFINED (__vector_dispatch_110)?(. - _ebase_address):__vector_offset_default
 *(.vector_110)
                0x00000218                __vector_offset_111 = DEFINED (__vector_dispatch_111)?(. - _ebase_address):__vector_offset_default
 *(.vector_111)
                0x00000218                __vector_offset_112 = DEFINED (__vector_dispatch_112)?(. - _ebase_address):__vector_offset_default
 *(.vector_112)
                0x00000218                __vector_offset_113 = DEFINED (__vector_dispatch_113)?(. - _ebase_address):__vector_offset_default
 *(.vector_113)
                0x00000218                __vector_offset_114 = DEFINED (__vector_dispatch_114)?(. - _ebase_address):__vector_offset_default
 *(.vector_114)
                0x00000218                __vector_offset_115 = DEFINED (__vector_dispatch_115)?(. - _ebase_address):__vector_offset_default
 *(.vector_115)
                0x00000218                __vector_offset_116 = DEFINED (__vector_dispatch_116)?(. - _ebase_address):__vector_offset_default
 *(.vector_116)
                0x00000218                __vector_offset_117 = DEFINED (__vector_dispatch_117)?(. - _ebase_address):__vector_offset_default
 *(.vector_117)
                0x00000218                __vector_offset_118 = DEFINED (__vector_dispatch_118)?(. - _ebase_address):__vector_offset_default
 *(.vector_118)
                0x00000218                __vector_offset_119 = DEFINED (__vector_dispatch_119)?(. - _ebase_address):__vector_offset_default
 *(.vector_119)
                0x00000218                __vector_offset_120 = DEFINED (__vector_dispatch_120)?(. - _ebase_address):__vector_offset_default
 *(.vector_120)
                0x00000218                __vector_offset_121 = DEFINED (__vector_dispatch_121)?(. - _ebase_address):__vector_offset_default
 *(.vector_121)
                0x00000218                __vector_offset_122 = DEFINED (__vector_dispatch_122)?(. - _ebase_address):__vector_offset_default
 *(.vector_122)
                0x00000218                __vector_offset_123 = DEFINED (__vector_dispatch_123)?(. - _ebase_address):__vector_offset_default
 *(.vector_123)
                0x00000218                __vector_offset_124 = DEFINED (__vector_dispatch_124)?(. - _ebase_address):__vector_offset_default
 *(.vector_124)
                0x00000218                __vector_offset_125 = DEFINED (__vector_dispatch_125)?(. - _ebase_address):__vector_offset_default
 *(.vector_125)
                0x00000218                __vector_offset_126 = DEFINED (__vector_dispatch_126)?(. - _ebase_address):__vector_offset_default
 *(.vector_126)
                0x00000218                __vector_offset_127 = DEFINED (__vector_dispatch_127)?(. - _ebase_address):__vector_offset_default
 *(.vector_127)
                0x00000218                __vector_offset_128 = DEFINED (__vector_dispatch_128)?(. - _ebase_address):__vector_offset_default
 *(.vector_128)
                0x00000218                __vector_offset_129 = DEFINED (__vector_dispatch_129)?(. - _ebase_address):__vector_offset_default
 *(.vector_129)
                0x00000218                __vector_offset_130 = DEFINED (__vector_dispatch_130)?(. - _ebase_address):__vector_offset_default
 *(.vector_130)
                0x00000218                __vector_offset_131 = DEFINED (__vector_dispatch_131)?(. - _ebase_address):__vector_offset_default
 *(.vector_131)
                0x00000218                __vector_offset_132 = DEFINED (__vector_dispatch_132)?(. - _ebase_address):__vector_offset_default
 *(.vector_132)
                0x00000218                __vector_offset_133 = DEFINED (__vector_dispatch_133)?(. - _ebase_address):__vector_offset_default
 *(.vector_133)
                0x00000218                __vector_offset_134 = DEFINED (__vector_dispatch_134)?(. - _ebase_address):__vector_offset_default
 *(.vector_134)
                0x00000218                __vector_offset_135 = DEFINED (__vector_dispatch_135)?(. - _ebase_address):__vector_offset_default
 *(.vector_135)
                0x00000218                __vector_offset_136 = DEFINED (__vector_dispatch_136)?(. - _ebase_address):__vector_offset_default
 *(.vector_136)
                0x00000218                __vector_offset_137 = DEFINED (__vector_dispatch_137)?(. - _ebase_address):__vector_offset_default
 *(.vector_137)
                0x00000218                __vector_offset_138 = DEFINED (__vector_dispatch_138)?(. - _ebase_address):__vector_offset_default
 *(.vector_138)
                0x00000218                __vector_offset_139 = DEFINED (__vector_dispatch_139)?(. - _ebase_address):__vector_offset_default
 *(.vector_139)
                0x00000218                __vector_offset_140 = DEFINED (__vector_dispatch_140)?(. - _ebase_address):__vector_offset_default
 *(.vector_140)
                0x00000218                __vector_offset_141 = DEFINED (__vector_dispatch_141)?(. - _ebase_address):__vector_offset_default
 *(.vector_141)
                0x00000218                __vector_offset_142 = DEFINED (__vector_dispatch_142)?(. - _ebase_address):__vector_offset_default
 *(.vector_142)
                0x00000218                __vector_offset_143 = DEFINED (__vector_dispatch_143)?(. - _ebase_address):__vector_offset_default
 *(.vector_143)
                0x00000218                __vector_offset_144 = DEFINED (__vector_dispatch_144)?(. - _ebase_address):__vector_offset_default
 *(.vector_144)
                0x00000218                __vector_offset_145 = DEFINED (__vector_dispatch_145)?(. - _ebase_address):__vector_offset_default
 *(.vector_145)
                0x00000218                __vector_offset_146 = DEFINED (__vector_dispatch_146)?(. - _ebase_address):__vector_offset_default
 *(.vector_146)
                0x00000218                __vector_offset_147 = DEFINED (__vector_dispatch_147)?(. - _ebase_address):__vector_offset_default
 *(.vector_147)
                0x00000218                __vector_offset_148 = DEFINED (__vector_dispatch_148)?(. - _ebase_address):__vector_offset_default
 *(.vector_148)
                0x00000218                __vector_offset_149 = DEFINED (__vector_dispatch_149)?(. - _ebase_address):__vector_offset_default
 *(.vector_149)
                0x00000218                __vector_offset_150 = DEFINED (__vector_dispatch_150)?(. - _ebase_address):__vector_offset_default
 *(.vector_150)
                0x00000208                __vector_offset_151 = DEFINED (__vector_dispatch_151)?(. - _ebase_address):__vector_offset_default
 *(.vector_151)
 .vector_151    0x9d000208        0x8 build/default/production/_ext/1688732426/system_interrupt.o
                0x9d000208                __vector_dispatch_151
                0x00000218                __vector_offset_152 = DEFINED (__vector_dispatch_152)?(. - _ebase_address):__vector_offset_default
 *(.vector_152)
                0x00000210                __vector_offset_153 = DEFINED (__vector_dispatch_153)?(. - _ebase_address):__vector_offset_default
 *(.vector_153)
 .vector_153    0x9d000210        0x8 build/default/production/_ext/1688732426/system_interrupt.o
                0x9d000210                __vector_dispatch_153
                0x00000218                __vector_offset_154 = DEFINED (__vector_dispatch_154)?(. - _ebase_address):__vector_offset_default
 *(.vector_154)
                0x00000218                __vector_offset_155 = DEFINED (__vector_dispatch_155)?(. - _ebase_address):__vector_offset_default
 *(.vector_155)
                0x00000218                __vector_offset_156 = DEFINED (__vector_dispatch_156)?(. - _ebase_address):__vector_offset_default
 *(.vector_156)
                0x00000218                __vector_offset_157 = DEFINED (__vector_dispatch_157)?(. - _ebase_address):__vector_offset_default
 *(.vector_157)
                0x00000218                __vector_offset_158 = DEFINED (__vector_dispatch_158)?(. - _ebase_address):__vector_offset_default
 *(.vector_158)
                0x00000218                __vector_offset_159 = DEFINED (__vector_dispatch_159)?(. - _ebase_address):__vector_offset_default
 *(.vector_159)
                0x00000218                __vector_offset_160 = DEFINED (__vector_dispatch_160)?(. - _ebase_address):__vector_offset_default
 *(.vector_160)
                0x00000218                __vector_offset_161 = DEFINED (__vector_dispatch_161)?(. - _ebase_address):__vector_offset_default
 *(.vector_161)
                0x00000218                __vector_offset_162 = DEFINED (__vector_dispatch_162)?(. - _ebase_address):__vector_offset_default
 *(.vector_162)
                0x00000218                __vector_offset_163 = DEFINED (__vector_dispatch_163)?(. - _ebase_address):__vector_offset_default
 *(.vector_163)
                0x00000218                __vector_offset_164 = DEFINED (__vector_dispatch_164)?(. - _ebase_address):__vector_offset_default
 *(.vector_164)
                0x00000218                __vector_offset_165 = DEFINED (__vector_dispatch_165)?(. - _ebase_address):__vector_offset_default
 *(.vector_165)
                0x00000218                __vector_offset_166 = DEFINED (__vector_dispatch_166)?(. - _ebase_address):__vector_offset_default
 *(.vector_166)
                0x00000218                __vector_offset_167 = DEFINED (__vector_dispatch_167)?(. - _ebase_address):__vector_offset_default
 *(.vector_167)
                0x00000218                __vector_offset_168 = DEFINED (__vector_dispatch_168)?(. - _ebase_address):__vector_offset_default
 *(.vector_168)
                0x00000218                __vector_offset_169 = DEFINED (__vector_dispatch_169)?(. - _ebase_address):__vector_offset_default
 *(.vector_169)
                0x00000218                __vector_offset_170 = DEFINED (__vector_dispatch_170)?(. - _ebase_address):__vector_offset_default
 *(.vector_170)
                0x00000218                __vector_offset_171 = DEFINED (__vector_dispatch_171)?(. - _ebase_address):__vector_offset_default
 *(.vector_171)
                0x00000218                __vector_offset_172 = DEFINED (__vector_dispatch_172)?(. - _ebase_address):__vector_offset_default
 *(.vector_172)
                0x00000218                __vector_offset_173 = DEFINED (__vector_dispatch_173)?(. - _ebase_address):__vector_offset_default
 *(.vector_173)
                0x00000218                __vector_offset_174 = DEFINED (__vector_dispatch_174)?(. - _ebase_address):__vector_offset_default
 *(.vector_174)
                0x00000218                __vector_offset_175 = DEFINED (__vector_dispatch_175)?(. - _ebase_address):__vector_offset_default
 *(.vector_175)
                0x00000218                __vector_offset_176 = DEFINED (__vector_dispatch_176)?(. - _ebase_address):__vector_offset_default
 *(.vector_176)
                0x00000218                __vector_offset_177 = DEFINED (__vector_dispatch_177)?(. - _ebase_address):__vector_offset_default
 *(.vector_177)
                0x00000218                __vector_offset_178 = DEFINED (__vector_dispatch_178)?(. - _ebase_address):__vector_offset_default
 *(.vector_178)
                0x00000218                __vector_offset_179 = DEFINED (__vector_dispatch_179)?(. - _ebase_address):__vector_offset_default
 *(.vector_179)
                0x00000218                __vector_offset_180 = DEFINED (__vector_dispatch_180)?(. - _ebase_address):__vector_offset_default
 *(.vector_180)
                0x00000218                __vector_offset_181 = DEFINED (__vector_dispatch_181)?(. - _ebase_address):__vector_offset_default
 *(.vector_181)
                0x00000218                __vector_offset_182 = DEFINED (__vector_dispatch_182)?(. - _ebase_address):__vector_offset_default
 *(.vector_182)
                0x00000218                __vector_offset_183 = DEFINED (__vector_dispatch_183)?(. - _ebase_address):__vector_offset_default
 *(.vector_183)
                0x00000218                __vector_offset_184 = DEFINED (__vector_dispatch_184)?(. - _ebase_address):__vector_offset_default
 *(.vector_184)
                0x00000218                __vector_offset_185 = DEFINED (__vector_dispatch_185)?(. - _ebase_address):__vector_offset_default
 *(.vector_185)
                0x00000218                __vector_offset_186 = DEFINED (__vector_dispatch_186)?(. - _ebase_address):__vector_offset_default
 *(.vector_186)
                0x00000218                __vector_offset_187 = DEFINED (__vector_dispatch_187)?(. - _ebase_address):__vector_offset_default
 *(.vector_187)
                0x00000218                __vector_offset_188 = DEFINED (__vector_dispatch_188)?(. - _ebase_address):__vector_offset_default
 *(.vector_188)
                0x00000218                __vector_offset_189 = DEFINED (__vector_dispatch_189)?(. - _ebase_address):__vector_offset_default
 *(.vector_189)
                0x00000218                __vector_offset_190 = DEFINED (__vector_dispatch_190)?(. - _ebase_address):__vector_offset_default
 *(.vector_190)
                0x00000218                __vector_offset_191 = DEFINED (__vector_dispatch_191)?(. - _ebase_address):__vector_offset_default
 *(.vector_191)
                0x00000218                __vector_offset_192 = DEFINED (__vector_dispatch_192)?(. - _ebase_address):__vector_offset_default
 *(.vector_192)
                0x00000218                __vector_offset_193 = DEFINED (__vector_dispatch_193)?(. - _ebase_address):__vector_offset_default
 *(.vector_193)
                0x00000218                __vector_offset_194 = DEFINED (__vector_dispatch_194)?(. - _ebase_address):__vector_offset_default
 *(.vector_194)
                0x00000218                __vector_offset_195 = DEFINED (__vector_dispatch_195)?(. - _ebase_address):__vector_offset_default
 *(.vector_195)
                0x00000218                __vector_offset_196 = DEFINED (__vector_dispatch_196)?(. - _ebase_address):__vector_offset_default
 *(.vector_196)
                0x00000218                __vector_offset_197 = DEFINED (__vector_dispatch_197)?(. - _ebase_address):__vector_offset_default
 *(.vector_197)
                0x00000218                __vector_offset_198 = DEFINED (__vector_dispatch_198)?(. - _ebase_address):__vector_offset_default
 *(.vector_198)
                0x00000218                __vector_offset_199 = DEFINED (__vector_dispatch_199)?(. - _ebase_address):__vector_offset_default
 *(.vector_199)
                0x00000218                __vector_offset_200 = DEFINED (__vector_dispatch_200)?(. - _ebase_address):__vector_offset_default
 *(.vector_200)
                0x00000218                __vector_offset_201 = DEFINED (__vector_dispatch_201)?(. - _ebase_address):__vector_offset_default
 *(.vector_201)
                0x00000218                __vector_offset_202 = DEFINED (__vector_dispatch_202)?(. - _ebase_address):__vector_offset_default
 *(.vector_202)
                0x00000218                __vector_offset_203 = DEFINED (__vector_dispatch_203)?(. - _ebase_address):__vector_offset_default
 *(.vector_203)
                0x00000218                __vector_offset_204 = DEFINED (__vector_dispatch_204)?(. - _ebase_address):__vector_offset_default
 *(.vector_204)
                0x00000218                __vector_offset_205 = DEFINED (__vector_dispatch_205)?(. - _ebase_address):__vector_offset_default
 *(.vector_205)
                0x00000218                __vector_offset_206 = DEFINED (__vector_dispatch_206)?(. - _ebase_address):__vector_offset_default
 *(.vector_206)
                0x00000218                __vector_offset_207 = DEFINED (__vector_dispatch_207)?(. - _ebase_address):__vector_offset_default
 *(.vector_207)
                0x00000218                __vector_offset_208 = DEFINED (__vector_dispatch_208)?(. - _ebase_address):__vector_offset_default
 *(.vector_208)
                0x00000218                __vector_offset_209 = DEFINED (__vector_dispatch_209)?(. - _ebase_address):__vector_offset_default
 *(.vector_209)
                0x00000218                __vector_offset_210 = DEFINED (__vector_dispatch_210)?(. - _ebase_address):__vector_offset_default
 *(.vector_210)
                0x00000218                __vector_offset_211 = DEFINED (__vector_dispatch_211)?(. - _ebase_address):__vector_offset_default
 *(.vector_211)
                0x00000218                __vector_offset_212 = DEFINED (__vector_dispatch_212)?(. - _ebase_address):__vector_offset_default
 *(.vector_212)
                0x00000218                __vector_offset_213 = DEFINED (__vector_dispatch_213)?(. - _ebase_address):__vector_offset_default
 *(.vector_213)
                0x00000218                __vector_offset_214 = DEFINED (__vector_dispatch_214)?(. - _ebase_address):__vector_offset_default
 *(.vector_214)
                0x00000218                __vector_offset_215 = DEFINED (__vector_dispatch_215)?(. - _ebase_address):__vector_offset_default
 *(.vector_215)
                0x00000218                __vector_offset_216 = DEFINED (__vector_dispatch_216)?(. - _ebase_address):__vector_offset_default
 *(.vector_216)
                0x00000218                __vector_offset_217 = DEFINED (__vector_dispatch_217)?(. - _ebase_address):__vector_offset_default
 *(.vector_217)
                0x00000218                __vector_offset_218 = DEFINED (__vector_dispatch_218)?(. - _ebase_address):__vector_offset_default
 *(.vector_218)
                0x00000218                __vector_offset_219 = DEFINED (__vector_dispatch_219)?(. - _ebase_address):__vector_offset_default
 *(.vector_219)
                0x00000218                __vector_offset_220 = DEFINED (__vector_dispatch_220)?(. - _ebase_address):__vector_offset_default
 *(.vector_220)
                0x00000218                __vector_offset_221 = DEFINED (__vector_dispatch_221)?(. - _ebase_address):__vector_offset_default
 *(.vector_221)
                0x00000218                __vector_offset_222 = DEFINED (__vector_dispatch_222)?(. - _ebase_address):__vector_offset_default
 *(.vector_222)
                0x00000218                __vector_offset_223 = DEFINED (__vector_dispatch_223)?(. - _ebase_address):__vector_offset_default
 *(.vector_223)
                0x00000218                __vector_offset_224 = DEFINED (__vector_dispatch_224)?(. - _ebase_address):__vector_offset_default
 *(.vector_224)
                0x00000218                __vector_offset_225 = DEFINED (__vector_dispatch_225)?(. - _ebase_address):__vector_offset_default
 *(.vector_225)
                0x00000218                __vector_offset_226 = DEFINED (__vector_dispatch_226)?(. - _ebase_address):__vector_offset_default
 *(.vector_226)
                0x00000218                __vector_offset_227 = DEFINED (__vector_dispatch_227)?(. - _ebase_address):__vector_offset_default
 *(.vector_227)
                0x00000218                __vector_offset_228 = DEFINED (__vector_dispatch_228)?(. - _ebase_address):__vector_offset_default
 *(.vector_228)
                0x00000218                __vector_offset_229 = DEFINED (__vector_dispatch_229)?(. - _ebase_address):__vector_offset_default
 *(.vector_229)
                0x00000218                __vector_offset_230 = DEFINED (__vector_dispatch_230)?(. - _ebase_address):__vector_offset_default
 *(.vector_230)
                0x00000218                __vector_offset_231 = DEFINED (__vector_dispatch_231)?(. - _ebase_address):__vector_offset_default
 *(.vector_231)
                0x00000218                __vector_offset_232 = DEFINED (__vector_dispatch_232)?(. - _ebase_address):__vector_offset_default
 *(.vector_232)
                0x00000218                __vector_offset_233 = DEFINED (__vector_dispatch_233)?(. - _ebase_address):__vector_offset_default
 *(.vector_233)
                0x00000218                __vector_offset_234 = DEFINED (__vector_dispatch_234)?(. - _ebase_address):__vector_offset_default
 *(.vector_234)
                0x00000218                __vector_offset_235 = DEFINED (__vector_dispatch_235)?(. - _ebase_address):__vector_offset_default
 *(.vector_235)
                0x00000218                __vector_offset_236 = DEFINED (__vector_dispatch_236)?(. - _ebase_address):__vector_offset_default
 *(.vector_236)
                0x00000218                __vector_offset_237 = DEFINED (__vector_dispatch_237)?(. - _ebase_address):__vector_offset_default
 *(.vector_237)
                0x00000218                __vector_offset_238 = DEFINED (__vector_dispatch_238)?(. - _ebase_address):__vector_offset_default
 *(.vector_238)
                0x00000218                __vector_offset_239 = DEFINED (__vector_dispatch_239)?(. - _ebase_address):__vector_offset_default
 *(.vector_239)
                0x00000218                __vector_offset_240 = DEFINED (__vector_dispatch_240)?(. - _ebase_address):__vector_offset_default
 *(.vector_240)
                0x00000218                __vector_offset_241 = DEFINED (__vector_dispatch_241)?(. - _ebase_address):__vector_offset_default
 *(.vector_241)
                0x00000218                __vector_offset_242 = DEFINED (__vector_dispatch_242)?(. - _ebase_address):__vector_offset_default
 *(.vector_242)
                0x00000218                __vector_offset_243 = DEFINED (__vector_dispatch_243)?(. - _ebase_address):__vector_offset_default
 *(.vector_243)
                0x00000218                __vector_offset_244 = DEFINED (__vector_dispatch_244)?(. - _ebase_address):__vector_offset_default
 *(.vector_244)
                0x00000218                __vector_offset_245 = DEFINED (__vector_dispatch_245)?(. - _ebase_address):__vector_offset_default
 *(.vector_245)
                0x00000218                __vector_offset_246 = DEFINED (__vector_dispatch_246)?(. - _ebase_address):__vector_offset_default
 *(.vector_246)
                0x00000218                __vector_offset_247 = DEFINED (__vector_dispatch_247)?(. - _ebase_address):__vector_offset_default
 *(.vector_247)
                0x00000218                __vector_offset_248 = DEFINED (__vector_dispatch_248)?(. - _ebase_address):__vector_offset_default
 *(.vector_248)
                0x00000218                __vector_offset_249 = DEFINED (__vector_dispatch_249)?(. - _ebase_address):__vector_offset_default
 *(.vector_249)
                0x00000218                __vector_offset_250 = DEFINED (__vector_dispatch_250)?(. - _ebase_address):__vector_offset_default
 *(.vector_250)
                0x00000218                __vector_offset_251 = DEFINED (__vector_dispatch_251)?(. - _ebase_address):__vector_offset_default
 *(.vector_251)
                0x00000218                __vector_offset_252 = DEFINED (__vector_dispatch_252)?(. - _ebase_address):__vector_offset_default
 *(.vector_252)
                0x00000218                __vector_offset_253 = DEFINED (__vector_dispatch_253)?(. - _ebase_address):__vector_offset_default
 *(.vector_253)
                0x00000218                __vector_offset_254 = DEFINED (__vector_dispatch_254)?(. - _ebase_address):__vector_offset_default
 *(.vector_254)
                0x00000218                __vector_offset_255 = DEFINED (__vector_dispatch_255)?(. - _ebase_address):__vector_offset_default
 *(.vector_255)
                0x00000218                __vector_offset_default = (. - _ebase_address)
 *(.vector_default)
 .vector_default
                0x9d000218       0x48 c:/program files (x86)/microchip/xc32/v1.40/bin/bin/../../lib/gcc/pic32mx/4.8.3/../../../../pic32mx/lib\libpic32.a(defaultinterrupt.o)
                0x9d000218                _DefaultInterrupt

.startup
 *(.startup)

.text           0x9d000260        0x0
 *(.stub .gnu.linkonce.t.*)
 *(.text.*personality*)
 *(.mips16.fn.*)
 *(.mips16.call.*)
 *(.gnu.warning)
                0x9d000260                . = ALIGN (0x4)

.init           0x9d000260        0x0
 *crti.o(.init)
 *crtbegin.o(.init)
 *(EXCLUDE_FILE(*crtn.o *crtend?.o *crtend.o) .init)
 *crtend.o(.init)
 *crtn.o(.init)
                0x9d000260                . = ALIGN (0x4)

.fini           0x9d000260        0x0
 *(.fini)
                0x9d000260                . = ALIGN (0x4)

.preinit_array  0x9d000260        0x0
                0x9d000260                PROVIDE (__preinit_array_start, .)
 *(.preinit_array)
                0x9d000260                PROVIDE (__preinit_array_end, .)
                0x9d000260                . = ALIGN (0x4)

.init_array     0x9d000260        0x0
                0x9d000260                PROVIDE (__init_array_start, .)
 *(SORT(.init_array.*))
 *(.init_array)
                0x9d000260                PROVIDE (__init_array_end, .)
                0x9d000260                . = ALIGN (0x4)

.fini_array     0x9d000260        0x0
                0x9d000260                PROVIDE (__fini_array_start, .)
 *(SORT(.fini_array.*))
 *(.fini_array)
                0x9d000260                PROVIDE (__fini_array_end, .)
                0x9d000260                . = ALIGN (0x4)

.ctors          0x9d000260        0x0
 *crtbegin.o(.ctors)
 *crtbegin?.o(.ctors)
 *(EXCLUDE_FILE(*crtend?.o *crtend.o) .ctors)
 *(SORT(.ctors.*))
 *(.ctors)
                0x9d000260                . = ALIGN (0x4)

.dtors          0x9d000260        0x0
 *crtbegin.o(.dtors)
 *crtbegin?.o(.dtors)
 *(EXCLUDE_FILE(*crtend?.o *crtend.o) .dtors)
 *(SORT(.dtors.*))
 *(.dtors)
                0x9d000260                . = ALIGN (0x4)

.rodata         0x9d000260        0x0
 *(.gnu.linkonce.r.*)
 *(.rodata1)
                0x9d000260                . = ALIGN (0x4)

.sdata2         0x9fc004b0        0x0
 *(.sdata2 .sdata2.* .gnu.linkonce.s2.*)
                0x9fc004b0                . = ALIGN (0x4)

.sbss2          0x9fc004b0        0x0
 *(.sbss2 .sbss2.* .gnu.linkonce.sb2.*)
                0x9fc004b0                . = ALIGN (0x4)

.eh_frame_hdr
 *(.eh_frame_hdr)
                0x9fc004b0                . = ALIGN (0x4)

.eh_frame
 *(.eh_frame)
                0x9fc004b0                . = ALIGN (0x4)

.gcc_except_table
 *(.gcc_except_table .gcc_except_table.*)
                0x9fc004b0                . = ALIGN (0x4)

.dbg_data       0x80000000        0x0
                0x80000000                . = (. + DEFINED (_DEBUGGER)?0x200:0x0)
                0x80000000                . = (. + DEFINED (_DEBUGGER)?0x80:0x0)

.jcr            0x80000000        0x0
 *(.jcr)
                0x80000000                . = ALIGN (0x4)

.eh_frame
 *(.eh_frame)
                0x80000000                . = ALIGN (0x4)

.gcc_except_table
 *(.gcc_except_table .gcc_except_table.*)
                0x80000000                . = ALIGN (0x4)

.persist        0x80000000        0x0
                0x80000000                _persist_begin = .
 *(.persist .persist.*)
 *(.pbss .pbss.*)
                0x80000000                . = ALIGN (0x4)
                0x80000000                _persist_end = .

.data           0x80000000        0x0
 *(.gnu.linkonce.d.*)
 *(.data1)
                0x80000000                . = ALIGN (0x4)
                0x80000000                . = .
                0x80007ff0                _gp = (ALIGN (0x10) + 0x7ff0)

.got            0x80000000        0x0
 *(.got.plt)
 *(.got)
                0x80000000                . = ALIGN (0x4)

.sdata          0x80000000       0x60
                0x80000000                _sdata_begin = .
 *(.sdata .sdata.* .gnu.linkonce.s.*)
 .sdata         0x80000000        0x8 build/default/production/_ext/1360937237/app.o
 .sdata         0x80000008        0x8 build/default/production/_ext/1360937237/app1.o
 .sdata         0x80000010        0x8 build/default/production/_ext/1360937237/app2.o
 .sdata         0x80000018        0x4 build/default/production/_ext/732687875/drv_ethphy.o
 .sdata         0x8000001c        0x4 build/default/production/_ext/1136935090/lfsr.o
 .sdata         0x80000020        0x8 build/default/production/_ext/1408260596/arp.o
 .sdata         0x80000028        0x1 build/default/production/_ext/1408260596/zero_conf_helper.o
                0x80000028                zeroconf_dbg_level
 *fill*         0x80000029        0x3 
 .sdata         0x8000002c        0x8 build/default/production/_ext/1408260596/zero_conf_link_local.o
 .sdata         0x80000034        0x4 build/default/production/_ext/1408260596/tcpip_manager.o
 .sdata         0x80000038       0x24 c:/program files (x86)/microchip/xc32/v1.40/bin/bin/../../lib/gcc/pic32mx/4.8.3/../../../../pic32mx/lib\libpic32.a(pic32_init_cache.o)
                0x80000038                __pic32_icache_size
                0x8000003c                __pic32_icache_linesize
                0x80000040                __pic32_icache_ways
                0x80000044                __pic32_dcache_size
                0x80000048                __pic32_dcache_linesize
                0x8000004c                __pic32_dcache_ways
                0x80000050                __pic32_scache_size
                0x80000054                __pic32_scache_linesize
                0x80000058                __pic32_scache_ways
 .sdata         0x8000005c        0x4 c:/program files (x86)/microchip/xc32/v1.40/bin/bin/../../lib/gcc/pic32mx/4.8.3/../../../../pic32mx/lib\libpic32.a(xc32_uart.o)
                0x8000005c                __XC_UART
                0x80000060                . = ALIGN (0x4)
                0x80000060                _sdata_end = .

.lit8
 *(.lit8)

.lit4
 *(.lit4)
                0x80000060                . = ALIGN (0x4)
                0x80000060                _data_end = .
                0x80000060                _bss_begin = .

.sbss           0x80000060      0x168
                0x80000060                _sbss_begin = .
 *(.dynsbss)
 *(.sbss .sbss.* .gnu.linkonce.sb.*)
 .sbss          0x80000060        0x4 build/default/production/_ext/337818580/drv_can_static.o
 .sbss          0x80000064        0xc build/default/production/_ext/1688732426/system_exceptions.o
 .sbss          0x80000070        0x4 build/default/production/_ext/1360937237/app.o
                0x80000070                CANbuffEndRX
                0x80000071                ENETbuffEndRX
                0x80000072                CANNewData
                0x80000073                ENETNewData
 .sbss          0x80000074        0x4 build/default/production/_ext/1908841681/drv_ethmac.o
 .sbss          0x80000078        0x4 build/default/production/_ext/185269848/drv_tmr.o
 *fill*         0x8000007c        0x4 
 .sbss          0x80000080       0x20 build/default/production/_ext/1136935090/big_int_helper_c32.o
                0x80000080                _iA
                0x80000084                _xA
                0x80000088                _iB
                0x8000008c                _xB
                0x80000090                _iR
                0x80000094                _wC
 .sbss          0x800000a0       0x24 build/default/production/_ext/1408260596/tcp.o
 .sbss          0x800000c4       0x20 build/default/production/_ext/1408260596/udp.o
 .sbss          0x800000e4        0xc build/default/production/_ext/1408260596/icmp.o
 .sbss          0x800000f0        0xc build/default/production/_ext/1408260596/nbns.o
 .sbss          0x800000fc        0xc build/default/production/_ext/1408260596/zero_conf_link_local.o
 .sbss          0x80000108       0x18 build/default/production/_ext/1408260596/tcpip_announce.o
 .sbss          0x80000120       0x28 build/default/production/_ext/1408260596/tcpip_manager.o
 .sbss          0x80000148       0x18 build/default/production/_ext/1408260596/tcpip_packet.o
 .sbss          0x80000160       0x14 build/default/production/_ext/1408260596/ipv4.o
 *(.scommon)
 .scommon       0x80000174       0x39 build/default/production/_ext/1360937237/app.o
                0x80000174                buffer_RPM
                0x8000017c                buffer_AP
                0x80000184                buffer_AT
                0x8000018c                buffer_TR
                0x80000194                value
                0x80000198                buffer_Coolant
                0x800001a0                buffer_Ignition
                0x800001a8                buffer_Battery
 *fill*         0x800001ad        0x3 
 .scommon       0x800001b0        0x8 build/default/production/_ext/1360937237/app1.o
                0x800001b0                app1Data
 .scommon       0x800001b8        0x8 build/default/production/_ext/1360937237/app2.o
                0x800001b8                app2Data
 .scommon       0x800001c0        0x8 build/default/production/_ext/1271179505/sys_devcon.o
                0x800001c0                sysDevconObj
                0x800001c8                _sbss_end = .
                0x800001c8                . = ALIGN (0x4)

.bss            0x800001c8      0x3ac
 *(.dynbss)
 *(COMMON)
 COMMON         0x800001c8       0x10 build/default/production/_ext/1688732426/system_init.o
                0x800001c8                sysObj
 COMMON         0x800001d8      0x238 build/default/production/_ext/1360937237/app.o
                0x800001d8                buffer
                0x800002d8                ENETbuffRX
                0x80000358                appData
                0x80000390                CANbuffRX
 COMMON         0x80000410       0x5c build/default/production/_ext/732687875/drv_ethphy.o
                0x80000410                gDrvETHPHYClientObj
                0x80000444                gDrvETHPHYObj
 COMMON         0x8000046c      0x108 build/default/production/_ext/1283840359/sys_random.o
                0x8000046c                sysRandCtx
                0x80000574                . = ALIGN ((. != 0x0)?0x4:0x1)
                0x80000574                . = ALIGN (0x4)
                0x80000574                _end = .
                0x80000574                _bss_end = .
                0x00080000                _bmxdudba_address = 0x80000
                0x00080000                _bmxdupba_address = 0x80000

/DISCARD/
 *(.pdr)
 *(.rel.dyn)
 *(.note.GNU-stack)
 *(.note.GNU-stack)
 *(.gnu_debuglink)
 *(.gnu.lto_*)
 *(.discard)

.gptab.sdata
 *(.gptab.data)
 *(.gptab.sdata)

.gptab.sbss
 *(.gptab.bss)
 *(.gptab.sbss)

.mdebug.abi32   0x80000574        0x0
 *(.mdebug.abi32)
 .mdebug.abi32  0x80000574        0x0 build/default/production/_ext/337818580/drv_can_static.o
 .mdebug.abi32  0x80000574        0x0 build/default/production/_ext/639803181/sys_clk_static.o
 .mdebug.abi32  0x80000574        0x0 build/default/production/_ext/822048611/sys_ports_static.o
 .mdebug.abi32  0x80000574        0x0 build/default/production/_ext/1688732426/system_init.o
 .mdebug.abi32  0x80000574        0x0 build/default/production/_ext/1688732426/system_interrupt.o
 .mdebug.abi32  0x80000574        0x0 build/default/production/_ext/1688732426/system_exceptions.o
 .mdebug.abi32  0x80000574        0x0 build/default/production/_ext/1688732426/system_tasks.o
 .mdebug.abi32  0x80000574        0x0 build/default/production/_ext/1360937237/app.o
 .mdebug.abi32  0x80000574        0x0 build/default/production/_ext/1360937237/main.o
 .mdebug.abi32  0x80000574        0x0 build/default/production/_ext/1360937237/app1.o
 .mdebug.abi32  0x80000574        0x0 build/default/production/_ext/1360937237/app2.o
 .mdebug.abi32  0x80000574        0x0 build/default/production/_ext/660089376/bsp_sys_init.o
 .mdebug.abi32  0x80000574        0x0 build/default/production/_ext/1886890887/random.o
 .mdebug.abi32  0x80000574        0x0 build/default/production/_ext/1886890887/arc4.o
 .mdebug.abi32  0x80000574        0x0 build/default/production/_ext/1886890887/crypto.o
 .mdebug.abi32  0x80000574        0x0 build/default/production/_ext/1908841681/drv_ethmac.o
 .mdebug.abi32  0x80000574        0x0 build/default/production/_ext/1908841681/drv_ethmac_lib.o
 .mdebug.abi32  0x80000574        0x0 build/default/production/_ext/732687875/drv_ethphy.o
 .mdebug.abi32  0x80000574        0x0 build/default/production/_ext/732687875/drv_extphy_smsc8740.o
 .mdebug.abi32  0x80000574        0x0 build/default/production/_ext/185269848/drv_tmr.o
 .mdebug.abi32  0x80000574        0x0 build/default/production/_ext/1271179505/sys_devcon.o
 .mdebug.abi32  0x80000574        0x0 build/default/production/_ext/1271179505/sys_devcon_pic32mz.o
 .mdebug.abi32  0x80000574        0x0 build/default/production/_ext/122796885/sys_int_pic32.o
 .mdebug.abi32  0x80000574        0x0 build/default/production/_ext/77319752/sys_ports.o
 .mdebug.abi32  0x80000574        0x0 build/default/production/_ext/1283840359/sys_random.o
 .mdebug.abi32  0x80000574        0x0 build/default/production/_ext/1264926591/sys_tmr.o
 .mdebug.abi32  0x80000574        0x0 build/default/production/_ext/1136935090/big_int.o
 .mdebug.abi32  0x80000574        0x0 build/default/production/_ext/1136935090/hashes.o
 .mdebug.abi32  0x80000574        0x0 build/default/production/_ext/1136935090/helpers.o
 .mdebug.abi32  0x80000574        0x0 build/default/production/_ext/1136935090/lfsr.o
 .mdebug.abi32  0x80000574        0x0 build/default/production/_ext/1408260596/tcp.o
 .mdebug.abi32  0x80000574        0x0 build/default/production/_ext/1408260596/udp.o
 .mdebug.abi32  0x80000574        0x0 build/default/production/_ext/1408260596/arp.o
 .mdebug.abi32  0x80000574        0x0 build/default/production/_ext/1408260596/dhcp.o
 .mdebug.abi32  0x80000574        0x0 build/default/production/_ext/1408260596/icmp.o
 .mdebug.abi32  0x80000574        0x0 build/default/production/_ext/1408260596/nbns.o
 .mdebug.abi32  0x80000574        0x0 build/default/production/_ext/1408260596/zero_conf_helper.o
 .mdebug.abi32  0x80000574        0x0 build/default/production/_ext/1408260596/zero_conf_link_local.o
 .mdebug.abi32  0x80000574        0x0 build/default/production/_ext/1408260596/tcpip_announce.o
 .mdebug.abi32  0x80000574        0x0 build/default/production/_ext/1408260596/hash_fnv.o
 .mdebug.abi32  0x80000574        0x0 build/default/production/_ext/1408260596/oahash.o
 .mdebug.abi32  0x80000574        0x0 build/default/production/_ext/1408260596/tcpip_heap_alloc.o
 .mdebug.abi32  0x80000574        0x0 build/default/production/_ext/1408260596/tcpip_helpers.o
 .mdebug.abi32  0x80000574        0x0 build/default/production/_ext/1408260596/tcpip_manager.o
 .mdebug.abi32  0x80000574        0x0 build/default/production/_ext/1408260596/tcpip_notify.o
 .mdebug.abi32  0x80000574        0x0 build/default/production/_ext/1408260596/tcpip_packet.o
 .mdebug.abi32  0x80000574        0x0 build/default/production/_ext/1408260596/ipv4.o
 .mdebug.abi32  0x80000574        0x0 ..\..\..\..\bin\framework\peripheral\PIC32MZ2048ECH144_peripherals.a(plib_eth_lib.o)
 .mdebug.abi32  0x80000574        0x0 c:/program files (x86)/microchip/xc32/v1.40/bin/bin/../../lib/gcc/pic32mx/4.8.3\libgcc.a(_udivdi3.o)
 .mdebug.abi32  0x80000574        0x0 c:/program files (x86)/microchip/xc32/v1.40/bin/bin/../../lib/gcc/pic32mx/4.8.3/../../../../pic32mx/lib\libpic32.a(default-bootstrap-exception-handler.o)
 .mdebug.abi32  0x80000574        0x0 c:/program files (x86)/microchip/xc32/v1.40/bin/bin/../../lib/gcc/pic32mx/4.8.3/../../../../pic32mx/lib\libpic32.a(default-on-reset.o)
 .mdebug.abi32  0x80000574        0x0 c:/program files (x86)/microchip/xc32/v1.40/bin/bin/../../lib/gcc/pic32mx/4.8.3/../../../../pic32mx/lib\libpic32.a(default-on-bootstrap.o)
 .mdebug.abi32  0x80000574        0x0 c:/program files (x86)/microchip/xc32/v1.40/bin/bin/../../lib/gcc/pic32mx/4.8.3/../../../../pic32mx/lib\libpic32.a(defaultinterrupt.o)
 .mdebug.abi32  0x80000574        0x0 c:/program files (x86)/microchip/xc32/v1.40/bin/bin/../../lib/gcc/pic32mx/4.8.3/../../../../pic32mx/lib\libpic32.a(default-cache-err-exception-handler.o)
 .mdebug.abi32  0x80000574        0x0 c:/program files (x86)/microchip/xc32/v1.40/bin/bin/../../lib/gcc/pic32mx/4.8.3/../../../../pic32mx/lib\libpic32.a(default-simple-tlb-refill-exception-handler.o)
 .mdebug.abi32  0x80000574        0x0 c:/program files (x86)/microchip/xc32/v1.40/bin/bin/../../lib/gcc/pic32mx/4.8.3/../../../../pic32mx/lib\libc.a(ctype.o)
 .mdebug.abi32  0x80000574        0x0 c:/program files (x86)/microchip/xc32/v1.40/bin/bin/../../lib/gcc/pic32mx/4.8.3/../../../../pic32mx/lib\libc.a(malloc.o)
 .mdebug.abi32  0x80000574        0x0 c:/program files (x86)/microchip/xc32/v1.40/bin/bin/../../lib/gcc/pic32mx/4.8.3/../../../../pic32mx/lib\libc.a(rand.o)
 .mdebug.abi32  0x80000574        0x0 c:/program files (x86)/microchip/xc32/v1.40/bin/bin/../../lib/gcc/pic32mx/4.8.3/../../../../pic32mx/lib\libc.a(strcat.o)
 .mdebug.abi32  0x80000574        0x0 c:/program files (x86)/microchip/xc32/v1.40/bin/bin/../../lib/gcc/pic32mx/4.8.3/../../../../pic32mx/lib\libc.a(strncpy.o)
 .mdebug.abi32  0x80000574        0x0 c:/program files (x86)/microchip/xc32/v1.40/bin/bin/../../lib/gcc/pic32mx/4.8.3/../../../../pic32mx/lib\libc.a(strtol.o)
 .mdebug.abi32  0x80000574        0x0 c:/program files (x86)/microchip/xc32/v1.40/bin/bin/../../lib/gcc/pic32mx/4.8.3/../../../../pic32mx/lib\libc.a(sprintf_cdnopsuxX.eo)
 .mdebug.abi32  0x80000574        0x0 c:/program files (x86)/microchip/xc32/v1.40/bin/bin/../../lib/gcc/pic32mx/4.8.3/../../../../pic32mx/lib\libc.a(sprintf.o)
 .mdebug.abi32  0x80000574        0x0 c:/program files (x86)/microchip/xc32/v1.40/bin/bin/../../lib/gcc/pic32mx/4.8.3/../../../../pic32mx/lib\libc.a(vsnprintf.o)
 .mdebug.abi32  0x80000574        0x0 c:/program files (x86)/microchip/xc32/v1.40/bin/bin/../../lib/gcc/pic32mx/4.8.3/../../../../pic32mx/lib\libc.a(ctypef.o)
 .mdebug.abi32  0x80000574        0x0 c:/program files (x86)/microchip/xc32/v1.40/bin/bin/../../lib/gcc/pic32mx/4.8.3/../../../../pic32mx/lib\libc.a(errno.o)
 .mdebug.abi32  0x80000574        0x0 c:/program files (x86)/microchip/xc32/v1.40/bin/bin/../../lib/gcc/pic32mx/4.8.3/../../../../pic32mx/lib\libc.a(doprnt_cdnopsuxX.eo)
 .mdebug.abi32  0x80000574        0x0 c:/program files (x86)/microchip/xc32/v1.40/bin/bin/../../lib/gcc/pic32mx/4.8.3/../../../../pic32mx/lib\libc.a(doprnt.o)
 .mdebug.abi32  0x80000574        0x0 c:/program files (x86)/microchip/xc32/v1.40/bin/bin/../../lib/gcc/pic32mx/4.8.3/../../../../pic32mx/lib\libc.a(_fputc_simple.o)
 .mdebug.abi32  0x80000574        0x0 c:/program files (x86)/microchip/xc32/v1.40/bin/bin/../../lib/gcc/pic32mx/4.8.3/../../../../pic32mx/lib\libc.a(powersf.o)
 .mdebug.abi32  0x80000574        0x0 c:/program files (x86)/microchip/xc32/v1.40/bin/bin/../../lib/gcc/pic32mx/4.8.3/../../../../pic32mx/lib\libc.a(_iob.o)
 .mdebug.abi32  0x80000574        0x0 c:/program files (x86)/microchip/xc32/v1.40/bin/bin/../../lib/gcc/pic32mx/4.8.3/../../../../pic32mx/lib\libc.a(_flsbuf_simple.o)
 .mdebug.abi32  0x80000574        0x0 c:/program files (x86)/microchip/xc32/v1.40/bin/bin/../../lib/gcc/pic32mx/4.8.3/../../../../pic32mx/lib\libpic32.a(sbrk.o)
 .mdebug.abi32  0x80000574        0x0 c:/program files (x86)/microchip/xc32/v1.40/bin/bin/../../lib/gcc/pic32mx/4.8.3/../../../../pic32mx/lib\libpic32.a(write.o)
 .mdebug.abi32  0x80000574        0x0 c:/program files (x86)/microchip/xc32/v1.40/bin/bin/../../lib/gcc/pic32mx/4.8.3/../../../../pic32mx/lib\libpic32.a(_mon_putc.o)
 .mdebug.abi32  0x80000574        0x0 c:/program files (x86)/microchip/xc32/v1.40/bin/bin/../../lib/gcc/pic32mx/4.8.3/../../../../pic32mx/lib\libpic32.a(xc32_uart.o)
 .mdebug.abi32  0x80000574        0x0 c:/program files (x86)/microchip/xc32/v1.40/bin/bin/../../lib/gcc/pic32mx/4.8.3/../../../../pic32mx/lib\libe.a(_floatdisf.o)
 .mdebug.abi32  0x80000574        0x0 c:/program files (x86)/microchip/xc32/v1.40/bin/bin/../../lib/gcc/pic32mx/4.8.3\libgcc.a(_umoddi3.o)
 .mdebug.abi32  0x80000574        0x0 c:/program files (x86)/microchip/xc32/v1.40/bin/bin/../../lib/gcc/pic32mx/4.8.3\libgcc.a(floatunsisf.o)

.mdebug.abiN32
 *(.mdebug.abiN32)

.mdebug.abi64
 *(.mdebug.abi64)

.mdebug.abiO64
 *(.mdebug.abiO64)

.mdebug.eabi32
 *(.mdebug.eabi32)

.mdebug.eabi64
 *(.mdebug.eabi64)

.gcc_compiled_long32
 *(.gcc_compiled_long32)

.gcc_compiled_long64
 *(.gcc_compiled_long64)

.stab
 *(.stab)

.stabstr
 *(.stabstr)

.stab.excl
 *(.stab.excl)

.stab.exclstr
 *(.stab.exclstr)

.stab.index
 *(.stab.index)

.stab.indexstr
 *(.stab.indexstr)

.comment        0x00000000      0x260
 *(.comment)
 .comment       0x00000000       0x3c build/default/production/_ext/337818580/drv_can_static.o
                                 0x3d (size before relaxing)
 .comment       0x00000000       0x3d build/default/production/_ext/639803181/sys_clk_static.o
 .comment       0x00000000       0x3d build/default/production/_ext/822048611/sys_ports_static.o
 .comment       0x00000000       0x3d build/default/production/_ext/1688732426/system_init.o
 .comment       0x00000000       0x3d build/default/production/_ext/1688732426/system_interrupt.o
 .comment       0x00000000       0x3d build/default/production/_ext/1688732426/system_exceptions.o
 .comment       0x00000000       0x3d build/default/production/_ext/1688732426/system_tasks.o
 .comment       0x00000000       0x3d build/default/production/_ext/1360937237/app.o
 .comment       0x00000000       0x3d build/default/production/_ext/1360937237/main.o
 .comment       0x00000000       0x3d build/default/production/_ext/1360937237/app1.o
 .comment       0x00000000       0x3d build/default/production/_ext/1360937237/app2.o
 .comment       0x00000000       0x3d build/default/production/_ext/660089376/bsp_sys_init.o
 .comment       0x00000000       0x3d build/default/production/_ext/1886890887/random.o
 .comment       0x00000000       0x3d build/default/production/_ext/1886890887/arc4.o
 .comment       0x00000000       0x3d build/default/production/_ext/1886890887/crypto.o
 .comment       0x00000000       0x3d build/default/production/_ext/1908841681/drv_ethmac.o
 .comment       0x00000000       0x3d build/default/production/_ext/1908841681/drv_ethmac_lib.o
 .comment       0x00000000       0x3d build/default/production/_ext/732687875/drv_ethphy.o
 .comment       0x00000000       0x3d build/default/production/_ext/732687875/drv_extphy_smsc8740.o
 .comment       0x00000000       0x3d build/default/production/_ext/185269848/drv_tmr.o
 .comment       0x00000000       0x3d build/default/production/_ext/1271179505/sys_devcon.o
 .comment       0x00000000       0x3d build/default/production/_ext/1271179505/sys_devcon_pic32mz.o
 .comment       0x00000000       0x3d build/default/production/_ext/122796885/sys_int_pic32.o
 .comment       0x00000000       0x3d build/default/production/_ext/77319752/sys_ports.o
 .comment       0x00000000       0x3d build/default/production/_ext/1283840359/sys_random.o
 .comment       0x00000000       0x3d build/default/production/_ext/1264926591/sys_tmr.o
 .comment       0x00000000       0x3d build/default/production/_ext/1136935090/big_int.o
 .comment       0x00000000       0x3d build/default/production/_ext/1136935090/hashes.o
 .comment       0x00000000       0x3d build/default/production/_ext/1136935090/helpers.o
 .comment       0x00000000       0x3d build/default/production/_ext/1136935090/lfsr.o
 .comment       0x00000000       0x3d build/default/production/_ext/1408260596/tcp.o
 .comment       0x00000000       0x3d build/default/production/_ext/1408260596/udp.o
 .comment       0x00000000       0x3d build/default/production/_ext/1408260596/arp.o
 .comment       0x00000000       0x3d build/default/production/_ext/1408260596/dhcp.o
 .comment       0x00000000       0x3d build/default/production/_ext/1408260596/icmp.o
 .comment       0x00000000       0x3d build/default/production/_ext/1408260596/nbns.o
 .comment       0x00000000       0x3d build/default/production/_ext/1408260596/zero_conf_helper.o
 .comment       0x00000000       0x3d build/default/production/_ext/1408260596/zero_conf_link_local.o
 .comment       0x00000000       0x3d build/default/production/_ext/1408260596/tcpip_announce.o
 .comment       0x00000000       0x3d build/default/production/_ext/1408260596/hash_fnv.o
 .comment       0x00000000       0x3d build/default/production/_ext/1408260596/oahash.o
 .comment       0x00000000       0x3d build/default/production/_ext/1408260596/tcpip_heap_alloc.o
 .comment       0x00000000       0x3d build/default/production/_ext/1408260596/tcpip_helpers.o
 .comment       0x00000000       0x3d build/default/production/_ext/1408260596/tcpip_manager.o
 .comment       0x00000000       0x3d build/default/production/_ext/1408260596/tcpip_notify.o
 .comment       0x00000000       0x3d build/default/production/_ext/1408260596/tcpip_packet.o
 .comment       0x00000000       0x3d build/default/production/_ext/1408260596/ipv4.o
 .comment       0x00000000       0x3d ..\..\..\..\bin\framework\peripheral\PIC32MZ2048ECH144_peripherals.a(plib_eth_lib.o)
 .comment       0x00000000       0x3d c:/program files (x86)/microchip/xc32/v1.40/bin/bin/../../lib/gcc/pic32mx/4.8.3\libgcc.a(_udivdi3.o)
 .comment       0x0000003c       0x18 c:/program files (x86)/microchip/xc32/v1.40/bin/bin/../../lib/gcc/pic32mx/4.8.3/../../../../pic32mx/lib\libpic32.a(memcmp.o)
                                 0x19 (size before relaxing)
 .comment       0x00000054       0x18 c:/program files (x86)/microchip/xc32/v1.40/bin/bin/../../lib/gcc/pic32mx/4.8.3/../../../../pic32mx/lib\libpic32.a(memset.o)
                                 0x19 (size before relaxing)
 .comment       0x0000006c       0x55 c:/program files (x86)/microchip/xc32/v1.40/bin/bin/../../lib/gcc/pic32mx/4.8.3/../../../../pic32mx/lib\libpic32.a(strcmp.o)
                                 0x56 (size before relaxing)
 .comment       0x000000c1       0x19 c:/program files (x86)/microchip/xc32/v1.40/bin/bin/../../lib/gcc/pic32mx/4.8.3/../../../../pic32mx/lib\libpic32.a(strlen.o)
                                 0x1a (size before relaxing)
 .comment       0x00000000       0x3d c:/program files (x86)/microchip/xc32/v1.40/bin/bin/../../lib/gcc/pic32mx/4.8.3/../../../../pic32mx/lib\libpic32.a(default-bootstrap-exception-handler.o)
 .comment       0x00000000       0x3d c:/program files (x86)/microchip/xc32/v1.40/bin/bin/../../lib/gcc/pic32mx/4.8.3/../../../../pic32mx/lib\libpic32.a(default-on-reset.o)
 .comment       0x00000000       0x3d c:/program files (x86)/microchip/xc32/v1.40/bin/bin/../../lib/gcc/pic32mx/4.8.3/../../../../pic32mx/lib\libpic32.a(default-on-bootstrap.o)
 .comment       0x00000000       0x3d c:/program files (x86)/microchip/xc32/v1.40/bin/bin/../../lib/gcc/pic32mx/4.8.3/../../../../pic32mx/lib\libpic32.a(defaultinterrupt.o)
 .comment       0x00000000       0x3d c:/program files (x86)/microchip/xc32/v1.40/bin/bin/../../lib/gcc/pic32mx/4.8.3/../../../../pic32mx/lib\libpic32.a(default-cache-err-exception-handler.o)
 .comment       0x00000000       0x3d c:/program files (x86)/microchip/xc32/v1.40/bin/bin/../../lib/gcc/pic32mx/4.8.3/../../../../pic32mx/lib\libpic32.a(default-simple-tlb-refill-exception-handler.o)
 .comment       0x000000da       0x4e c:/program files (x86)/microchip/xc32/v1.40/bin/bin/../../lib/gcc/pic32mx/4.8.3/../../../../pic32mx/lib\libc.a(ctype.o)
                                 0x8b (size before relaxing)
 .comment       0x00000000       0x3d c:/program files (x86)/microchip/xc32/v1.40/bin/bin/../../lib/gcc/pic32mx/4.8.3/../../../../pic32mx/lib\libc.a(malloc.o)
 .comment       0x00000000       0x3d c:/program files (x86)/microchip/xc32/v1.40/bin/bin/../../lib/gcc/pic32mx/4.8.3/../../../../pic32mx/lib\libc.a(rand.o)
 .comment       0x00000000       0x3d c:/program files (x86)/microchip/xc32/v1.40/bin/bin/../../lib/gcc/pic32mx/4.8.3/../../../../pic32mx/lib\libc.a(strcat.o)
 .comment       0x00000000       0x3d c:/program files (x86)/microchip/xc32/v1.40/bin/bin/../../lib/gcc/pic32mx/4.8.3/../../../../pic32mx/lib\libc.a(strncpy.o)
 .comment       0x00000000       0x3d c:/program files (x86)/microchip/xc32/v1.40/bin/bin/../../lib/gcc/pic32mx/4.8.3/../../../../pic32mx/lib\libc.a(strtol.o)
 .comment       0x00000000       0x3d c:/program files (x86)/microchip/xc32/v1.40/bin/bin/../../lib/gcc/pic32mx/4.8.3/../../../../pic32mx/lib\libc.a(sprintf_cdnopsuxX.eo)
 .comment       0x00000000       0x3d c:/program files (x86)/microchip/xc32/v1.40/bin/bin/../../lib/gcc/pic32mx/4.8.3/../../../../pic32mx/lib\libc.a(sprintf.o)
 .comment       0x00000000       0x3d c:/program files (x86)/microchip/xc32/v1.40/bin/bin/../../lib/gcc/pic32mx/4.8.3/../../../../pic32mx/lib\libc.a(vsnprintf.o)
 .comment       0x00000128       0x4f c:/program files (x86)/microchip/xc32/v1.40/bin/bin/../../lib/gcc/pic32mx/4.8.3/../../../../pic32mx/lib\libc.a(ctypef.o)
                                 0x8c (size before relaxing)
 .comment       0x00000000       0x3d c:/program files (x86)/microchip/xc32/v1.40/bin/bin/../../lib/gcc/pic32mx/4.8.3/../../../../pic32mx/lib\libc.a(errno.o)
 .comment       0x00000000       0x3d c:/program files (x86)/microchip/xc32/v1.40/bin/bin/../../lib/gcc/pic32mx/4.8.3/../../../../pic32mx/lib\libc.a(doprnt_cdnopsuxX.eo)
 .comment       0x00000000       0x3d c:/program files (x86)/microchip/xc32/v1.40/bin/bin/../../lib/gcc/pic32mx/4.8.3/../../../../pic32mx/lib\libc.a(doprnt.o)
 .comment       0x00000000       0x3d c:/program files (x86)/microchip/xc32/v1.40/bin/bin/../../lib/gcc/pic32mx/4.8.3/../../../../pic32mx/lib\libc.a(_fputc_simple.o)
 .comment       0x00000000       0x3d c:/program files (x86)/microchip/xc32/v1.40/bin/bin/../../lib/gcc/pic32mx/4.8.3/../../../../pic32mx/lib\libc.a(powersf.o)
 .comment       0x00000000       0x3d c:/program files (x86)/microchip/xc32/v1.40/bin/bin/../../lib/gcc/pic32mx/4.8.3/../../../../pic32mx/lib\libc.a(_iob.o)
 .comment       0x00000000       0x3d c:/program files (x86)/microchip/xc32/v1.40/bin/bin/../../lib/gcc/pic32mx/4.8.3/../../../../pic32mx/lib\libc.a(_flsbuf_simple.o)
 .comment       0x00000177       0x4b c:/program files (x86)/microchip/xc32/v1.40/bin/bin/../../lib/gcc/pic32mx/4.8.3/../../../../pic32mx/lib\libpic32.a(sbrk.o)
                                 0x88 (size before relaxing)
 .comment       0x00000000       0x3d c:/program files (x86)/microchip/xc32/v1.40/bin/bin/../../lib/gcc/pic32mx/4.8.3/../../../../pic32mx/lib\libpic32.a(write.o)
 .comment       0x00000000       0x3d c:/program files (x86)/microchip/xc32/v1.40/bin/bin/../../lib/gcc/pic32mx/4.8.3/../../../../pic32mx/lib\libpic32.a(_mon_putc.o)
 .comment       0x00000000       0x3d c:/program files (x86)/microchip/xc32/v1.40/bin/bin/../../lib/gcc/pic32mx/4.8.3/../../../../pic32mx/lib\libpic32.a(xc32_uart.o)
 .comment       0x000001c2       0x9e c:/program files (x86)/microchip/xc32/v1.40/bin/bin/../../lib/gcc/pic32mx/4.8.3/../../../../pic32mx/lib\libe.a(_floatdisf.o)
                                 0xdb (size before relaxing)
 .comment       0x00000000       0x3d c:/program files (x86)/microchip/xc32/v1.40/bin/bin/../../lib/gcc/pic32mx/4.8.3\libgcc.a(_umoddi3.o)
 .comment       0x00000000       0x3d c:/program files (x86)/microchip/xc32/v1.40/bin/bin/../../lib/gcc/pic32mx/4.8.3\libgcc.a(floatunsisf.o)

.debug
 *(.debug)

.line
 *(.line)

.debug_srcinfo
 *(.debug_srcinfo)

.debug_sfnames
 *(.debug_sfnames)

.debug_aranges  0x00000000     0x2140
 *(.debug_aranges)
 .debug_aranges
                0x00000000       0x50 build/default/production/_ext/337818580/drv_can_static.o
 .debug_aranges
                0x00000050       0x38 build/default/production/_ext/639803181/sys_clk_static.o
 .debug_aranges
                0x00000088       0x20 build/default/production/_ext/822048611/sys_ports_static.o
 .debug_aranges
                0x000000a8       0x28 build/default/production/_ext/1688732426/system_init.o
 .debug_aranges
                0x000000d0       0x38 build/default/production/_ext/1688732426/system_interrupt.o
 .debug_aranges
                0x00000108       0x20 build/default/production/_ext/1688732426/system_exceptions.o
 .debug_aranges
                0x00000128       0x20 build/default/production/_ext/1688732426/system_tasks.o
 .debug_aranges
                0x00000148       0x38 build/default/production/_ext/1360937237/app.o
 .debug_aranges
                0x00000180       0x20 build/default/production/_ext/1360937237/main.o
 .debug_aranges
                0x000001a0       0x30 build/default/production/_ext/1360937237/app1.o
 .debug_aranges
                0x000001d0       0x30 build/default/production/_ext/1360937237/app2.o
 .debug_aranges
                0x00000200       0x60 build/default/production/_ext/660089376/bsp_sys_init.o
 .debug_aranges
                0x00000260       0x38 build/default/production/_ext/1886890887/random.o
 .debug_aranges
                0x00000298       0x28 build/default/production/_ext/1886890887/arc4.o
 .debug_aranges
                0x000002c0       0x58 build/default/production/_ext/1886890887/crypto.o
 .debug_aranges
                0x00000318      0x180 build/default/production/_ext/1908841681/drv_ethmac.o
 .debug_aranges
                0x00000498       0xf0 build/default/production/_ext/1908841681/drv_ethmac_lib.o
 .debug_aranges
                0x00000588      0x280 build/default/production/_ext/732687875/drv_ethphy.o
 .debug_aranges
                0x00000808       0x30 build/default/production/_ext/732687875/drv_extphy_smsc8740.o
 .debug_aranges
                0x00000838      0x178 build/default/production/_ext/185269848/drv_tmr.o
 .debug_aranges
                0x000009b0       0x78 build/default/production/_ext/1271179505/sys_devcon.o
 .debug_aranges
                0x00000a28       0xc8 build/default/production/_ext/1271179505/sys_devcon_pic32mz.o
 .debug_aranges
                0x00000af0       0x48 build/default/production/_ext/122796885/sys_int_pic32.o
 .debug_aranges
                0x00000b38       0xf8 build/default/production/_ext/77319752/sys_ports.o
 .debug_aranges
                0x00000c30       0x68 build/default/production/_ext/1283840359/sys_random.o
 .debug_aranges
                0x00000c98       0xc8 build/default/production/_ext/1264926591/sys_tmr.o
 .debug_aranges
                0x00000d60       0x80 build/default/production/_ext/1136935090/big_int.o
 .debug_aranges
                0x00000de0       0x20 build/default/production/_ext/1136935090/big_int_helper_c32.o
 .debug_aranges
                0x00000e00       0x60 build/default/production/_ext/1136935090/hashes.o
 .debug_aranges
                0x00000e60       0x58 build/default/production/_ext/1136935090/helpers.o
 .debug_aranges
                0x00000eb8       0x28 build/default/production/_ext/1136935090/lfsr.o
 .debug_aranges
                0x00000ee0      0x240 build/default/production/_ext/1408260596/tcp.o
 .debug_aranges
                0x00001120      0x1e0 build/default/production/_ext/1408260596/udp.o
 .debug_aranges
                0x00001300      0x120 build/default/production/_ext/1408260596/arp.o
 .debug_aranges
                0x00001420       0x50 build/default/production/_ext/1408260596/dhcp.o
 .debug_aranges
                0x00001470       0x58 build/default/production/_ext/1408260596/icmp.o
 .debug_aranges
                0x000014c8       0x40 build/default/production/_ext/1408260596/nbns.o
 .debug_aranges
                0x00001508       0x20 build/default/production/_ext/1408260596/zero_conf_helper.o
 .debug_aranges
                0x00001528       0x70 build/default/production/_ext/1408260596/zero_conf_link_local.o
 .debug_aranges
                0x00001598       0x40 build/default/production/_ext/1408260596/tcpip_announce.o
 .debug_aranges
                0x000015d8       0x28 build/default/production/_ext/1408260596/hash_fnv.o
 .debug_aranges
                0x00001600       0x50 build/default/production/_ext/1408260596/oahash.o
 .debug_aranges
                0x00001650       0x68 build/default/production/_ext/1408260596/tcpip_heap_alloc.o
 .debug_aranges
                0x000016b8      0x1c8 build/default/production/_ext/1408260596/tcpip_helpers.o
 .debug_aranges
                0x00001880       0x20 build/default/production/_ext/1408260596/tcpip_helper_c32.o
 .debug_aranges
                0x000018a0      0x348 build/default/production/_ext/1408260596/tcpip_manager.o
 .debug_aranges
                0x00001be8       0x40 build/default/production/_ext/1408260596/tcpip_notify.o
 .debug_aranges
                0x00001c28       0xa0 build/default/production/_ext/1408260596/tcpip_packet.o
 .debug_aranges
                0x00001cc8       0x68 build/default/production/_ext/1408260596/ipv4.o
 .debug_aranges
                0x00001d30       0x20 c:/program files (x86)/microchip/xc32/v1.40/bin/bin/../../lib/gcc/pic32mx/4.8.3\libgcc.a(_udivdi3.o)
 .debug_aranges
                0x00001d50       0x20 c:/program files (x86)/microchip/xc32/v1.40/bin/bin/../../lib/gcc/pic32mx/4.8.3/../../../../pic32mx/lib\libpic32.a(default-bootstrap-exception-handler.o)
 .debug_aranges
                0x00001d70       0x20 c:/program files (x86)/microchip/xc32/v1.40/bin/bin/../../lib/gcc/pic32mx/4.8.3/../../../../pic32mx/lib\libpic32.a(default-on-reset.o)
 .debug_aranges
                0x00001d90       0x20 c:/program files (x86)/microchip/xc32/v1.40/bin/bin/../../lib/gcc/pic32mx/4.8.3/../../../../pic32mx/lib\libpic32.a(default-on-bootstrap.o)
 .debug_aranges
                0x00001db0       0x20 c:/program files (x86)/microchip/xc32/v1.40/bin/bin/../../lib/gcc/pic32mx/4.8.3/../../../../pic32mx/lib\libpic32.a(defaultinterrupt.o)
 .debug_aranges
                0x00001dd0       0x20 c:/program files (x86)/microchip/xc32/v1.40/bin/bin/../../lib/gcc/pic32mx/4.8.3/../../../../pic32mx/lib\libpic32.a(default-cache-err-exception-handler.o)
 .debug_aranges
                0x00001df0       0x20 c:/program files (x86)/microchip/xc32/v1.40/bin/bin/../../lib/gcc/pic32mx/4.8.3/../../../../pic32mx/lib\libpic32.a(default-simple-tlb-refill-exception-handler.o)
 .debug_aranges
                0x00001e10       0x30 c:/program files (x86)/microchip/xc32/v1.40/bin/bin/../../lib/gcc/pic32mx/4.8.3/../../../../pic32mx/lib\libc.a(malloc.o)
 .debug_aranges
                0x00001e40       0x28 c:/program files (x86)/microchip/xc32/v1.40/bin/bin/../../lib/gcc/pic32mx/4.8.3/../../../../pic32mx/lib\libc.a(rand.o)
 .debug_aranges
                0x00001e68       0x20 c:/program files (x86)/microchip/xc32/v1.40/bin/bin/../../lib/gcc/pic32mx/4.8.3/../../../../pic32mx/lib\libc.a(strcat.o)
 .debug_aranges
                0x00001e88       0x20 c:/program files (x86)/microchip/xc32/v1.40/bin/bin/../../lib/gcc/pic32mx/4.8.3/../../../../pic32mx/lib\libc.a(strncpy.o)
 .debug_aranges
                0x00001ea8       0x28 c:/program files (x86)/microchip/xc32/v1.40/bin/bin/../../lib/gcc/pic32mx/4.8.3/../../../../pic32mx/lib\libc.a(strtol.o)
 .debug_aranges
                0x00001ed0       0x20 c:/program files (x86)/microchip/xc32/v1.40/bin/bin/../../lib/gcc/pic32mx/4.8.3/../../../../pic32mx/lib\libc.a(sprintf_cdnopsuxX.eo)
 .debug_aranges
                0x00001ef0       0x20 c:/program files (x86)/microchip/xc32/v1.40/bin/bin/../../lib/gcc/pic32mx/4.8.3/../../../../pic32mx/lib\libc.a(sprintf.o)
 .debug_aranges
                0x00001f10       0x20 c:/program files (x86)/microchip/xc32/v1.40/bin/bin/../../lib/gcc/pic32mx/4.8.3/../../../../pic32mx/lib\libc.a(vsnprintf.o)
 .debug_aranges
                0x00001f30       0xa0 c:/program files (x86)/microchip/xc32/v1.40/bin/bin/../../lib/gcc/pic32mx/4.8.3/../../../../pic32mx/lib\libc.a(ctypef.o)
 .debug_aranges
                0x00001fd0       0x20 c:/program files (x86)/microchip/xc32/v1.40/bin/bin/../../lib/gcc/pic32mx/4.8.3/../../../../pic32mx/lib\libc.a(doprnt_cdnopsuxX.eo)
 .debug_aranges
                0x00001ff0       0x30 c:/program files (x86)/microchip/xc32/v1.40/bin/bin/../../lib/gcc/pic32mx/4.8.3/../../../../pic32mx/lib\libc.a(doprnt.o)
 .debug_aranges
                0x00002020       0x20 c:/program files (x86)/microchip/xc32/v1.40/bin/bin/../../lib/gcc/pic32mx/4.8.3/../../../../pic32mx/lib\libc.a(_fputc_simple.o)
 .debug_aranges
                0x00002040       0x20 c:/program files (x86)/microchip/xc32/v1.40/bin/bin/../../lib/gcc/pic32mx/4.8.3/../../../../pic32mx/lib\libc.a(_flsbuf_simple.o)
 .debug_aranges
                0x00002060       0x40 c:/program files (x86)/microchip/xc32/v1.40/bin/bin/../../lib/gcc/pic32mx/4.8.3/../../../../pic32mx/lib\libpic32.a(sbrk.o)
 .debug_aranges
                0x000020a0       0x20 c:/program files (x86)/microchip/xc32/v1.40/bin/bin/../../lib/gcc/pic32mx/4.8.3/../../../../pic32mx/lib\libpic32.a(write.o)
 .debug_aranges
                0x000020c0       0x20 c:/program files (x86)/microchip/xc32/v1.40/bin/bin/../../lib/gcc/pic32mx/4.8.3/../../../../pic32mx/lib\libpic32.a(_mon_putc.o)
 .debug_aranges
                0x000020e0       0x20 c:/program files (x86)/microchip/xc32/v1.40/bin/bin/../../lib/gcc/pic32mx/4.8.3/../../../../pic32mx/lib\libe.a(_floatdisf.o)
 .debug_aranges
                0x00002100       0x20 c:/program files (x86)/microchip/xc32/v1.40/bin/bin/../../lib/gcc/pic32mx/4.8.3\libgcc.a(_umoddi3.o)
 .debug_aranges
                0x00002120       0x20 c:/program files (x86)/microchip/xc32/v1.40/bin/bin/../../lib/gcc/pic32mx/4.8.3\libgcc.a(floatunsisf.o)

.debug_pubnames
 *(.debug_pubnames)

.debug_info     0x00000000    0xda19c
 *(.debug_info .gnu.linkonce.wi.*)
 .debug_info    0x00000000     0x7ef0 build/default/production/_ext/337818580/drv_can_static.o
 .debug_info    0x00007ef0     0x40ed build/default/production/_ext/639803181/sys_clk_static.o
 .debug_info    0x0000bfdd     0x35ac build/default/production/_ext/822048611/sys_ports_static.o
 .debug_info    0x0000f589     0x93df build/default/production/_ext/1688732426/system_init.o
 .debug_info    0x00018968     0x4a2e build/default/production/_ext/1688732426/system_interrupt.o
 .debug_info    0x0001d396     0x2e78 build/default/production/_ext/1688732426/system_exceptions.o
 .debug_info    0x0002020e     0x2dc6 build/default/production/_ext/1688732426/system_tasks.o
 .debug_info    0x00022fd4     0x3f8c build/default/production/_ext/1360937237/app.o
 .debug_info    0x00026f60      0x1a0 build/default/production/_ext/1360937237/main.o
 .debug_info    0x00027100     0x39b9 build/default/production/_ext/1360937237/app1.o
 .debug_info    0x0002aab9     0x3a39 build/default/production/_ext/1360937237/app2.o
 .debug_info    0x0002e4f2     0x1ad8 build/default/production/_ext/660089376/bsp_sys_init.o
 .debug_info    0x0002ffca     0x11ec build/default/production/_ext/1886890887/random.o
 .debug_info    0x000311b6     0x1057 build/default/production/_ext/1886890887/arc4.o
 .debug_info    0x0003220d     0x19b8 build/default/production/_ext/1886890887/crypto.o
 .debug_info    0x00033bc5     0xc419 build/default/production/_ext/1908841681/drv_ethmac.o
 .debug_info    0x0003ffde     0xb7d5 build/default/production/_ext/1908841681/drv_ethmac_lib.o
 .debug_info    0x0004b7b3     0x983b build/default/production/_ext/732687875/drv_ethphy.o
 .debug_info    0x00054fee     0x1ca0 build/default/production/_ext/732687875/drv_extphy_smsc8740.o
 .debug_info    0x00056c8e     0xaaf1 build/default/production/_ext/185269848/drv_tmr.o
 .debug_info    0x0006177f     0x1f66 build/default/production/_ext/1271179505/sys_devcon.o
 .debug_info    0x000636e5     0x1d5f build/default/production/_ext/1271179505/sys_devcon_pic32mz.o
 .debug_info    0x00065444     0x2c43 build/default/production/_ext/122796885/sys_int_pic32.o
 .debug_info    0x00068087     0x508d build/default/production/_ext/77319752/sys_ports.o
 .debug_info    0x0006d114     0x162e build/default/production/_ext/1283840359/sys_random.o
 .debug_info    0x0006e742     0x317a build/default/production/_ext/1264926591/sys_tmr.o
 .debug_info    0x000718bc      0x938 build/default/production/_ext/1136935090/big_int.o
 .debug_info    0x000721f4       0xa0 build/default/production/_ext/1136935090/big_int_helper_c32.o
 .debug_info    0x00072294      0x98e build/default/production/_ext/1136935090/hashes.o
 .debug_info    0x00072c22      0x598 build/default/production/_ext/1136935090/helpers.o
 .debug_info    0x000731ba      0x215 build/default/production/_ext/1136935090/lfsr.o
 .debug_info    0x000733cf     0xbeee build/default/production/_ext/1408260596/tcp.o
 .debug_info    0x0007f2bd     0xa476 build/default/production/_ext/1408260596/udp.o
 .debug_info    0x00089733     0x8a55 build/default/production/_ext/1408260596/arp.o
 .debug_info    0x00092188     0x30ba build/default/production/_ext/1408260596/dhcp.o
 .debug_info    0x00095242     0x68db build/default/production/_ext/1408260596/icmp.o
 .debug_info    0x0009bb1d     0x60c6 build/default/production/_ext/1408260596/nbns.o
 .debug_info    0x000a1be3     0x2ed8 build/default/production/_ext/1408260596/zero_conf_helper.o
 .debug_info    0x000a4abb     0x675b build/default/production/_ext/1408260596/zero_conf_link_local.o
 .debug_info    0x000ab216     0x6415 build/default/production/_ext/1408260596/tcpip_announce.o
 .debug_info    0x000b162b      0x25e build/default/production/_ext/1408260596/hash_fnv.o
 .debug_info    0x000b1889      0x882 build/default/production/_ext/1408260596/oahash.o
 .debug_info    0x000b210b     0x3bfe build/default/production/_ext/1408260596/tcpip_heap_alloc.o
 .debug_info    0x000b5d09     0x6e2c build/default/production/_ext/1408260596/tcpip_helpers.o
 .debug_info    0x000bcb35       0x97 build/default/production/_ext/1408260596/tcpip_helper_c32.o
 .debug_info    0x000bcbcc     0xc7c1 build/default/production/_ext/1408260596/tcpip_manager.o
 .debug_info    0x000c938d     0x3174 build/default/production/_ext/1408260596/tcpip_notify.o
 .debug_info    0x000cc501     0x4711 build/default/production/_ext/1408260596/tcpip_packet.o
 .debug_info    0x000d0c12     0x71c5 build/default/production/_ext/1408260596/ipv4.o
 .debug_info    0x000d7dd7      0x74f c:/program files (x86)/microchip/xc32/v1.40/bin/bin/../../lib/gcc/pic32mx/4.8.3\libgcc.a(_udivdi3.o)
 .debug_info    0x000d8526       0xe3 c:/program files (x86)/microchip/xc32/v1.40/bin/bin/../../lib/gcc/pic32mx/4.8.3/../../../../pic32mx/lib\libpic32.a(default-bootstrap-exception-handler.o)
 .debug_info    0x000d8609       0xbd c:/program files (x86)/microchip/xc32/v1.40/bin/bin/../../lib/gcc/pic32mx/4.8.3/../../../../pic32mx/lib\libpic32.a(default-on-reset.o)
 .debug_info    0x000d86c6       0xc5 c:/program files (x86)/microchip/xc32/v1.40/bin/bin/../../lib/gcc/pic32mx/4.8.3/../../../../pic32mx/lib\libpic32.a(default-on-bootstrap.o)
 .debug_info    0x000d878b       0xd7 c:/program files (x86)/microchip/xc32/v1.40/bin/bin/../../lib/gcc/pic32mx/4.8.3/../../../../pic32mx/lib\libpic32.a(defaultinterrupt.o)
 .debug_info    0x000d8862       0xe3 c:/program files (x86)/microchip/xc32/v1.40/bin/bin/../../lib/gcc/pic32mx/4.8.3/../../../../pic32mx/lib\libpic32.a(default-cache-err-exception-handler.o)
 .debug_info    0x000d8945       0xf3 c:/program files (x86)/microchip/xc32/v1.40/bin/bin/../../lib/gcc/pic32mx/4.8.3/../../../../pic32mx/lib\libpic32.a(default-simple-tlb-refill-exception-handler.o)
 .debug_info    0x000d8a38       0xe7 c:/program files (x86)/microchip/xc32/v1.40/bin/bin/../../lib/gcc/pic32mx/4.8.3/../../../../pic32mx/lib\libc.a(malloc.o)
 .debug_info    0x000d8b1f       0xcd c:/program files (x86)/microchip/xc32/v1.40/bin/bin/../../lib/gcc/pic32mx/4.8.3/../../../../pic32mx/lib\libc.a(rand.o)
 .debug_info    0x000d8bec       0xb6 c:/program files (x86)/microchip/xc32/v1.40/bin/bin/../../lib/gcc/pic32mx/4.8.3/../../../../pic32mx/lib\libc.a(strcat.o)
 .debug_info    0x000d8ca2       0xb8 c:/program files (x86)/microchip/xc32/v1.40/bin/bin/../../lib/gcc/pic32mx/4.8.3/../../../../pic32mx/lib\libc.a(strncpy.o)
 .debug_info    0x000d8d5a       0xcd c:/program files (x86)/microchip/xc32/v1.40/bin/bin/../../lib/gcc/pic32mx/4.8.3/../../../../pic32mx/lib\libc.a(strtol.o)
 .debug_info    0x000d8e27       0xc3 c:/program files (x86)/microchip/xc32/v1.40/bin/bin/../../lib/gcc/pic32mx/4.8.3/../../../../pic32mx/lib\libc.a(sprintf_cdnopsuxX.eo)
 .debug_info    0x000d8eea       0xb8 c:/program files (x86)/microchip/xc32/v1.40/bin/bin/../../lib/gcc/pic32mx/4.8.3/../../../../pic32mx/lib\libc.a(sprintf.o)
 .debug_info    0x000d8fa2       0xbc c:/program files (x86)/microchip/xc32/v1.40/bin/bin/../../lib/gcc/pic32mx/4.8.3/../../../../pic32mx/lib\libc.a(vsnprintf.o)
 .debug_info    0x000d905e      0x22a c:/program files (x86)/microchip/xc32/v1.40/bin/bin/../../lib/gcc/pic32mx/4.8.3/../../../../pic32mx/lib\libc.a(ctypef.o)
 .debug_info    0x000d9288       0xc4 c:/program files (x86)/microchip/xc32/v1.40/bin/bin/../../lib/gcc/pic32mx/4.8.3/../../../../pic32mx/lib\libc.a(doprnt_cdnopsuxX.eo)
 .debug_info    0x000d934c       0xf0 c:/program files (x86)/microchip/xc32/v1.40/bin/bin/../../lib/gcc/pic32mx/4.8.3/../../../../pic32mx/lib\libc.a(doprnt.o)
 .debug_info    0x000d943c       0xb4 c:/program files (x86)/microchip/xc32/v1.40/bin/bin/../../lib/gcc/pic32mx/4.8.3/../../../../pic32mx/lib\libc.a(_fputc_simple.o)
 .debug_info    0x000d94f0       0xb7 c:/program files (x86)/microchip/xc32/v1.40/bin/bin/../../lib/gcc/pic32mx/4.8.3/../../../../pic32mx/lib\libc.a(_flsbuf_simple.o)
 .debug_info    0x000d95a7      0x11a c:/program files (x86)/microchip/xc32/v1.40/bin/bin/../../lib/gcc/pic32mx/4.8.3/../../../../pic32mx/lib\libpic32.a(sbrk.o)
 .debug_info    0x000d96c1       0xae c:/program files (x86)/microchip/xc32/v1.40/bin/bin/../../lib/gcc/pic32mx/4.8.3/../../../../pic32mx/lib\libpic32.a(write.o)
 .debug_info    0x000d976f       0xb6 c:/program files (x86)/microchip/xc32/v1.40/bin/bin/../../lib/gcc/pic32mx/4.8.3/../../../../pic32mx/lib\libpic32.a(_mon_putc.o)
 .debug_info    0x000d9825       0xcc c:/program files (x86)/microchip/xc32/v1.40/bin/bin/../../lib/gcc/pic32mx/4.8.3/../../../../pic32mx/lib\libe.a(_floatdisf.o)
 .debug_info    0x000d98f1      0x78c c:/program files (x86)/microchip/xc32/v1.40/bin/bin/../../lib/gcc/pic32mx/4.8.3\libgcc.a(_umoddi3.o)
 .debug_info    0x000da07d      0x11f c:/program files (x86)/microchip/xc32/v1.40/bin/bin/../../lib/gcc/pic32mx/4.8.3\libgcc.a(floatunsisf.o)

.debug_abbrev   0x00000000     0x8d08
 *(.debug_abbrev)
 .debug_abbrev  0x00000000      0x2d3 build/default/production/_ext/337818580/drv_can_static.o
 .debug_abbrev  0x000002d3      0x233 build/default/production/_ext/639803181/sys_clk_static.o
 .debug_abbrev  0x00000506      0x152 build/default/production/_ext/822048611/sys_ports_static.o
 .debug_abbrev  0x00000658      0x3a8 build/default/production/_ext/1688732426/system_init.o
 .debug_abbrev  0x00000a00      0x245 build/default/production/_ext/1688732426/system_interrupt.o
 .debug_abbrev  0x00000c45       0xa2 build/default/production/_ext/1688732426/system_exceptions.o
 .debug_abbrev  0x00000ce7       0xec build/default/production/_ext/1688732426/system_tasks.o
 .debug_abbrev  0x00000dd3      0x225 build/default/production/_ext/1360937237/app.o
 .debug_abbrev  0x00000ff8       0x93 build/default/production/_ext/1360937237/main.o
 .debug_abbrev  0x0000108b      0x239 build/default/production/_ext/1360937237/app1.o
 .debug_abbrev  0x000012c4      0x24e build/default/production/_ext/1360937237/app2.o
 .debug_abbrev  0x00001512      0x1b6 build/default/production/_ext/660089376/bsp_sys_init.o
 .debug_abbrev  0x000016c8      0x16e build/default/production/_ext/1886890887/random.o
 .debug_abbrev  0x00001836      0x149 build/default/production/_ext/1886890887/arc4.o
 .debug_abbrev  0x0000197f      0x158 build/default/production/_ext/1886890887/crypto.o
 .debug_abbrev  0x00001ad7      0x5c5 build/default/production/_ext/1908841681/drv_ethmac.o
 .debug_abbrev  0x0000209c      0x55a build/default/production/_ext/1908841681/drv_ethmac_lib.o
 .debug_abbrev  0x000025f6      0x551 build/default/production/_ext/732687875/drv_ethphy.o
 .debug_abbrev  0x00002b47      0x215 build/default/production/_ext/732687875/drv_extphy_smsc8740.o
 .debug_abbrev  0x00002d5c      0x4a1 build/default/production/_ext/185269848/drv_tmr.o
 .debug_abbrev  0x000031fd      0x27e build/default/production/_ext/1271179505/sys_devcon.o
 .debug_abbrev  0x0000347b      0x21d build/default/production/_ext/1271179505/sys_devcon_pic32mz.o
 .debug_abbrev  0x00003698      0x1c3 build/default/production/_ext/122796885/sys_int_pic32.o
 .debug_abbrev  0x0000385b      0x263 build/default/production/_ext/77319752/sys_ports.o
 .debug_abbrev  0x00003abe      0x252 build/default/production/_ext/1283840359/sys_random.o
 .debug_abbrev  0x00003d10      0x501 build/default/production/_ext/1264926591/sys_tmr.o
 .debug_abbrev  0x00004211      0x1bb build/default/production/_ext/1136935090/big_int.o
 .debug_abbrev  0x000043cc       0x14 build/default/production/_ext/1136935090/big_int_helper_c32.o
 .debug_abbrev  0x000043e0      0x212 build/default/production/_ext/1136935090/hashes.o
 .debug_abbrev  0x000045f2      0x177 build/default/production/_ext/1136935090/helpers.o
 .debug_abbrev  0x00004769       0x82 build/default/production/_ext/1136935090/lfsr.o
 .debug_abbrev  0x000047eb      0x5cf build/default/production/_ext/1408260596/tcp.o
 .debug_abbrev  0x00004dba      0x616 build/default/production/_ext/1408260596/udp.o
 .debug_abbrev  0x000053d0      0x52f build/default/production/_ext/1408260596/arp.o
 .debug_abbrev  0x000058ff       0xfd build/default/production/_ext/1408260596/dhcp.o
 .debug_abbrev  0x000059fc      0x4a3 build/default/production/_ext/1408260596/icmp.o
 .debug_abbrev  0x00005e9f      0x415 build/default/production/_ext/1408260596/nbns.o
 .debug_abbrev  0x000062b4       0xd0 build/default/production/_ext/1408260596/zero_conf_helper.o
 .debug_abbrev  0x00006384      0x470 build/default/production/_ext/1408260596/zero_conf_link_local.o
 .debug_abbrev  0x000067f4      0x40b build/default/production/_ext/1408260596/tcpip_announce.o
 .debug_abbrev  0x00006bff       0xb0 build/default/production/_ext/1408260596/hash_fnv.o
 .debug_abbrev  0x00006caf      0x24c build/default/production/_ext/1408260596/oahash.o
 .debug_abbrev  0x00006efb      0x2e2 build/default/production/_ext/1408260596/tcpip_heap_alloc.o
 .debug_abbrev  0x000071dd      0x44c build/default/production/_ext/1408260596/tcpip_helpers.o
 .debug_abbrev  0x00007629       0x14 build/default/production/_ext/1408260596/tcpip_helper_c32.o
 .debug_abbrev  0x0000763d      0x65a build/default/production/_ext/1408260596/tcpip_manager.o
 .debug_abbrev  0x00007c97      0x185 build/default/production/_ext/1408260596/tcpip_notify.o
 .debug_abbrev  0x00007e1c      0x308 build/default/production/_ext/1408260596/tcpip_packet.o
 .debug_abbrev  0x00008124      0x4d7 build/default/production/_ext/1408260596/ipv4.o
 .debug_abbrev  0x000085fb      0x138 c:/program files (x86)/microchip/xc32/v1.40/bin/bin/../../lib/gcc/pic32mx/4.8.3\libgcc.a(_udivdi3.o)
 .debug_abbrev  0x00008733       0x28 c:/program files (x86)/microchip/xc32/v1.40/bin/bin/../../lib/gcc/pic32mx/4.8.3/../../../../pic32mx/lib\libpic32.a(default-bootstrap-exception-handler.o)
 .debug_abbrev  0x0000875b       0x28 c:/program files (x86)/microchip/xc32/v1.40/bin/bin/../../lib/gcc/pic32mx/4.8.3/../../../../pic32mx/lib\libpic32.a(default-on-reset.o)
 .debug_abbrev  0x00008783       0x28 c:/program files (x86)/microchip/xc32/v1.40/bin/bin/../../lib/gcc/pic32mx/4.8.3/../../../../pic32mx/lib\libpic32.a(default-on-bootstrap.o)
 .debug_abbrev  0x000087ab       0x28 c:/program files (x86)/microchip/xc32/v1.40/bin/bin/../../lib/gcc/pic32mx/4.8.3/../../../../pic32mx/lib\libpic32.a(defaultinterrupt.o)
 .debug_abbrev  0x000087d3       0x28 c:/program files (x86)/microchip/xc32/v1.40/bin/bin/../../lib/gcc/pic32mx/4.8.3/../../../../pic32mx/lib\libpic32.a(default-cache-err-exception-handler.o)
 .debug_abbrev  0x000087fb       0x28 c:/program files (x86)/microchip/xc32/v1.40/bin/bin/../../lib/gcc/pic32mx/4.8.3/../../../../pic32mx/lib\libpic32.a(default-simple-tlb-refill-exception-handler.o)
 .debug_abbrev  0x00008823       0x47 c:/program files (x86)/microchip/xc32/v1.40/bin/bin/../../lib/gcc/pic32mx/4.8.3/../../../../pic32mx/lib\libc.a(malloc.o)
 .debug_abbrev  0x0000886a       0x47 c:/program files (x86)/microchip/xc32/v1.40/bin/bin/../../lib/gcc/pic32mx/4.8.3/../../../../pic32mx/lib\libc.a(rand.o)
 .debug_abbrev  0x000088b1       0x28 c:/program files (x86)/microchip/xc32/v1.40/bin/bin/../../lib/gcc/pic32mx/4.8.3/../../../../pic32mx/lib\libc.a(strcat.o)
 .debug_abbrev  0x000088d9       0x28 c:/program files (x86)/microchip/xc32/v1.40/bin/bin/../../lib/gcc/pic32mx/4.8.3/../../../../pic32mx/lib\libc.a(strncpy.o)
 .debug_abbrev  0x00008901       0x28 c:/program files (x86)/microchip/xc32/v1.40/bin/bin/../../lib/gcc/pic32mx/4.8.3/../../../../pic32mx/lib\libc.a(strtol.o)
 .debug_abbrev  0x00008929       0x28 c:/program files (x86)/microchip/xc32/v1.40/bin/bin/../../lib/gcc/pic32mx/4.8.3/../../../../pic32mx/lib\libc.a(sprintf_cdnopsuxX.eo)
 .debug_abbrev  0x00008951       0x28 c:/program files (x86)/microchip/xc32/v1.40/bin/bin/../../lib/gcc/pic32mx/4.8.3/../../../../pic32mx/lib\libc.a(sprintf.o)
 .debug_abbrev  0x00008979       0x28 c:/program files (x86)/microchip/xc32/v1.40/bin/bin/../../lib/gcc/pic32mx/4.8.3/../../../../pic32mx/lib\libc.a(vsnprintf.o)
 .debug_abbrev  0x000089a1       0x28 c:/program files (x86)/microchip/xc32/v1.40/bin/bin/../../lib/gcc/pic32mx/4.8.3/../../../../pic32mx/lib\libc.a(ctypef.o)
 .debug_abbrev  0x000089c9       0x28 c:/program files (x86)/microchip/xc32/v1.40/bin/bin/../../lib/gcc/pic32mx/4.8.3/../../../../pic32mx/lib\libc.a(doprnt_cdnopsuxX.eo)
 .debug_abbrev  0x000089f1       0x45 c:/program files (x86)/microchip/xc32/v1.40/bin/bin/../../lib/gcc/pic32mx/4.8.3/../../../../pic32mx/lib\libc.a(doprnt.o)
 .debug_abbrev  0x00008a36       0x28 c:/program files (x86)/microchip/xc32/v1.40/bin/bin/../../lib/gcc/pic32mx/4.8.3/../../../../pic32mx/lib\libc.a(_fputc_simple.o)
 .debug_abbrev  0x00008a5e       0x28 c:/program files (x86)/microchip/xc32/v1.40/bin/bin/../../lib/gcc/pic32mx/4.8.3/../../../../pic32mx/lib\libc.a(_flsbuf_simple.o)
 .debug_abbrev  0x00008a86       0x54 c:/program files (x86)/microchip/xc32/v1.40/bin/bin/../../lib/gcc/pic32mx/4.8.3/../../../../pic32mx/lib\libpic32.a(sbrk.o)
 .debug_abbrev  0x00008ada       0x28 c:/program files (x86)/microchip/xc32/v1.40/bin/bin/../../lib/gcc/pic32mx/4.8.3/../../../../pic32mx/lib\libpic32.a(write.o)
 .debug_abbrev  0x00008b02       0x28 c:/program files (x86)/microchip/xc32/v1.40/bin/bin/../../lib/gcc/pic32mx/4.8.3/../../../../pic32mx/lib\libpic32.a(_mon_putc.o)
 .debug_abbrev  0x00008b2a       0x35 c:/program files (x86)/microchip/xc32/v1.40/bin/bin/../../lib/gcc/pic32mx/4.8.3/../../../../pic32mx/lib\libe.a(_floatdisf.o)
 .debug_abbrev  0x00008b5f      0x147 c:/program files (x86)/microchip/xc32/v1.40/bin/bin/../../lib/gcc/pic32mx/4.8.3\libgcc.a(_umoddi3.o)
 .debug_abbrev  0x00008ca6       0x62 c:/program files (x86)/microchip/xc32/v1.40/bin/bin/../../lib/gcc/pic32mx/4.8.3\libgcc.a(floatunsisf.o)

.debug_line     0x00000000    0x126c2
 *(.debug_line)
 .debug_line    0x00000000      0x7a9 build/default/production/_ext/337818580/drv_can_static.o
 .debug_line    0x000007a9      0x441 build/default/production/_ext/639803181/sys_clk_static.o
 .debug_line    0x00000bea      0x484 build/default/production/_ext/822048611/sys_ports_static.o
 .debug_line    0x0000106e      0x851 build/default/production/_ext/1688732426/system_init.o
 .debug_line    0x000018bf      0x49a build/default/production/_ext/1688732426/system_interrupt.o
 .debug_line    0x00001d59      0x182 build/default/production/_ext/1688732426/system_exceptions.o
 .debug_line    0x00001edb      0x2cf build/default/production/_ext/1688732426/system_tasks.o
 .debug_line    0x000021aa      0x4ce build/default/production/_ext/1360937237/app.o
 .debug_line    0x00002678       0xb0 build/default/production/_ext/1360937237/main.o
 .debug_line    0x00002728      0x41c build/default/production/_ext/1360937237/app1.o
 .debug_line    0x00002b44      0x423 build/default/production/_ext/1360937237/app2.o
 .debug_line    0x00002f67      0x32d build/default/production/_ext/660089376/bsp_sys_init.o
 .debug_line    0x00003294      0x178 build/default/production/_ext/1886890887/random.o
 .debug_line    0x0000340c      0x10a build/default/production/_ext/1886890887/arc4.o
 .debug_line    0x00003516      0x1d5 build/default/production/_ext/1886890887/crypto.o
 .debug_line    0x000036eb      0xe53 build/default/production/_ext/1908841681/drv_ethmac.o
 .debug_line    0x0000453e      0xe60 build/default/production/_ext/1908841681/drv_ethmac_lib.o
 .debug_line    0x0000539e     0x1120 build/default/production/_ext/732687875/drv_ethphy.o
 .debug_line    0x000064be      0x2cc build/default/production/_ext/732687875/drv_extphy_smsc8740.o
 .debug_line    0x0000678a     0x147c build/default/production/_ext/185269848/drv_tmr.o
 .debug_line    0x00007c06      0x629 build/default/production/_ext/1271179505/sys_devcon.o
 .debug_line    0x0000822f      0x58b build/default/production/_ext/1271179505/sys_devcon_pic32mz.o
 .debug_line    0x000087ba      0x390 build/default/production/_ext/122796885/sys_int_pic32.o
 .debug_line    0x00008b4a      0x853 build/default/production/_ext/77319752/sys_ports.o
 .debug_line    0x0000939d      0x350 build/default/production/_ext/1283840359/sys_random.o
 .debug_line    0x000096ed      0x610 build/default/production/_ext/1264926591/sys_tmr.o
 .debug_line    0x00009cfd      0x22a build/default/production/_ext/1136935090/big_int.o
 .debug_line    0x00009f27      0x15c build/default/production/_ext/1136935090/big_int_helper_c32.o
 .debug_line    0x0000a083      0x27b build/default/production/_ext/1136935090/hashes.o
 .debug_line    0x0000a2fe      0x1fd build/default/production/_ext/1136935090/helpers.o
 .debug_line    0x0000a4fb       0xdb build/default/production/_ext/1136935090/lfsr.o
 .debug_line    0x0000a5d6     0x1295 build/default/production/_ext/1408260596/tcp.o
 .debug_line    0x0000b86b      0xd69 build/default/production/_ext/1408260596/udp.o
 .debug_line    0x0000c5d4      0x979 build/default/production/_ext/1408260596/arp.o
 .debug_line    0x0000cf4d      0x1c5 build/default/production/_ext/1408260596/dhcp.o
 .debug_line    0x0000d112      0x4c6 build/default/production/_ext/1408260596/icmp.o
 .debug_line    0x0000d5d8      0x44b build/default/production/_ext/1408260596/nbns.o
 .debug_line    0x0000da23      0x1fd build/default/production/_ext/1408260596/zero_conf_helper.o
 .debug_line    0x0000dc20      0x60f build/default/production/_ext/1408260596/zero_conf_link_local.o
 .debug_line    0x0000e22f      0x44b build/default/production/_ext/1408260596/tcpip_announce.o
 .debug_line    0x0000e67a      0x131 build/default/production/_ext/1408260596/hash_fnv.o
 .debug_line    0x0000e7ab      0x1d6 build/default/production/_ext/1408260596/oahash.o
 .debug_line    0x0000e981      0x3c6 build/default/production/_ext/1408260596/tcpip_heap_alloc.o
 .debug_line    0x0000ed47      0xc25 build/default/production/_ext/1408260596/tcpip_helpers.o
 .debug_line    0x0000f96c       0xfa build/default/production/_ext/1408260596/tcpip_helper_c32.o
 .debug_line    0x0000fa66     0x1240 build/default/production/_ext/1408260596/tcpip_manager.o
 .debug_line    0x00010ca6      0x21a build/default/production/_ext/1408260596/tcpip_notify.o
 .debug_line    0x00010ec0      0x45a build/default/production/_ext/1408260596/tcpip_packet.o
 .debug_line    0x0001131a      0x60f build/default/production/_ext/1408260596/ipv4.o
 .debug_line    0x00011929       0xed c:/program files (x86)/microchip/xc32/v1.40/bin/bin/../../lib/gcc/pic32mx/4.8.3\libgcc.a(_udivdi3.o)
 .debug_line    0x00011a16       0x97 c:/program files (x86)/microchip/xc32/v1.40/bin/bin/../../lib/gcc/pic32mx/4.8.3/../../../../pic32mx/lib\libpic32.a(default-bootstrap-exception-handler.o)
 .debug_line    0x00011aad       0x84 c:/program files (x86)/microchip/xc32/v1.40/bin/bin/../../lib/gcc/pic32mx/4.8.3/../../../../pic32mx/lib\libpic32.a(default-on-reset.o)
 .debug_line    0x00011b31       0x88 c:/program files (x86)/microchip/xc32/v1.40/bin/bin/../../lib/gcc/pic32mx/4.8.3/../../../../pic32mx/lib\libpic32.a(default-on-bootstrap.o)
 .debug_line    0x00011bb9       0x96 c:/program files (x86)/microchip/xc32/v1.40/bin/bin/../../lib/gcc/pic32mx/4.8.3/../../../../pic32mx/lib\libpic32.a(defaultinterrupt.o)
 .debug_line    0x00011c4f       0x97 c:/program files (x86)/microchip/xc32/v1.40/bin/bin/../../lib/gcc/pic32mx/4.8.3/../../../../pic32mx/lib\libpic32.a(default-cache-err-exception-handler.o)
 .debug_line    0x00011ce6       0x9f c:/program files (x86)/microchip/xc32/v1.40/bin/bin/../../lib/gcc/pic32mx/4.8.3/../../../../pic32mx/lib\libpic32.a(default-simple-tlb-refill-exception-handler.o)
 .debug_line    0x00011d85        0x0 c:/program files (x86)/microchip/xc32/v1.40/bin/bin/../../lib/gcc/pic32mx/4.8.3/../../../../pic32mx/lib\libc.a(ctype.o)
 .debug_line    0x00011d85       0x70 c:/program files (x86)/microchip/xc32/v1.40/bin/bin/../../lib/gcc/pic32mx/4.8.3/../../../../pic32mx/lib\libc.a(malloc.o)
 .debug_line    0x00011df5       0x6e c:/program files (x86)/microchip/xc32/v1.40/bin/bin/../../lib/gcc/pic32mx/4.8.3/../../../../pic32mx/lib\libc.a(rand.o)
 .debug_line    0x00011e63       0x70 c:/program files (x86)/microchip/xc32/v1.40/bin/bin/../../lib/gcc/pic32mx/4.8.3/../../../../pic32mx/lib\libc.a(strcat.o)
 .debug_line    0x00011ed3       0x71 c:/program files (x86)/microchip/xc32/v1.40/bin/bin/../../lib/gcc/pic32mx/4.8.3/../../../../pic32mx/lib\libc.a(strncpy.o)
 .debug_line    0x00011f44       0x70 c:/program files (x86)/microchip/xc32/v1.40/bin/bin/../../lib/gcc/pic32mx/4.8.3/../../../../pic32mx/lib\libc.a(strtol.o)
 .debug_line    0x00011fb4       0x71 c:/program files (x86)/microchip/xc32/v1.40/bin/bin/../../lib/gcc/pic32mx/4.8.3/../../../../pic32mx/lib\libc.a(sprintf_cdnopsuxX.eo)
 .debug_line    0x00012025       0x71 c:/program files (x86)/microchip/xc32/v1.40/bin/bin/../../lib/gcc/pic32mx/4.8.3/../../../../pic32mx/lib\libc.a(sprintf.o)
 .debug_line    0x00012096       0x73 c:/program files (x86)/microchip/xc32/v1.40/bin/bin/../../lib/gcc/pic32mx/4.8.3/../../../../pic32mx/lib\libc.a(vsnprintf.o)
 .debug_line    0x00012109       0x70 c:/program files (x86)/microchip/xc32/v1.40/bin/bin/../../lib/gcc/pic32mx/4.8.3/../../../../pic32mx/lib\libc.a(ctypef.o)
 .debug_line    0x00012179        0x0 c:/program files (x86)/microchip/xc32/v1.40/bin/bin/../../lib/gcc/pic32mx/4.8.3/../../../../pic32mx/lib\libc.a(errno.o)
 .debug_line    0x00012179       0x70 c:/program files (x86)/microchip/xc32/v1.40/bin/bin/../../lib/gcc/pic32mx/4.8.3/../../../../pic32mx/lib\libc.a(doprnt_cdnopsuxX.eo)
 .debug_line    0x000121e9       0x70 c:/program files (x86)/microchip/xc32/v1.40/bin/bin/../../lib/gcc/pic32mx/4.8.3/../../../../pic32mx/lib\libc.a(doprnt.o)
 .debug_line    0x00012259       0x6f c:/program files (x86)/microchip/xc32/v1.40/bin/bin/../../lib/gcc/pic32mx/4.8.3/../../../../pic32mx/lib\libc.a(_fputc_simple.o)
 .debug_line    0x000122c8        0x0 c:/program files (x86)/microchip/xc32/v1.40/bin/bin/../../lib/gcc/pic32mx/4.8.3/../../../../pic32mx/lib\libc.a(powersf.o)
 .debug_line    0x000122c8        0x0 c:/program files (x86)/microchip/xc32/v1.40/bin/bin/../../lib/gcc/pic32mx/4.8.3/../../../../pic32mx/lib\libc.a(_iob.o)
 .debug_line    0x000122c8       0x70 c:/program files (x86)/microchip/xc32/v1.40/bin/bin/../../lib/gcc/pic32mx/4.8.3/../../../../pic32mx/lib\libc.a(_flsbuf_simple.o)
 .debug_line    0x00012338       0x78 c:/program files (x86)/microchip/xc32/v1.40/bin/bin/../../lib/gcc/pic32mx/4.8.3/../../../../pic32mx/lib\libpic32.a(sbrk.o)
 .debug_line    0x000123b0       0x79 c:/program files (x86)/microchip/xc32/v1.40/bin/bin/../../lib/gcc/pic32mx/4.8.3/../../../../pic32mx/lib\libpic32.a(write.o)
 .debug_line    0x00012429       0x7d c:/program files (x86)/microchip/xc32/v1.40/bin/bin/../../lib/gcc/pic32mx/4.8.3/../../../../pic32mx/lib\libpic32.a(_mon_putc.o)
 .debug_line    0x000124a6        0x0 c:/program files (x86)/microchip/xc32/v1.40/bin/bin/../../lib/gcc/pic32mx/4.8.3/../../../../pic32mx/lib\libpic32.a(xc32_uart.o)
 .debug_line    0x000124a6       0x93 c:/program files (x86)/microchip/xc32/v1.40/bin/bin/../../lib/gcc/pic32mx/4.8.3/../../../../pic32mx/lib\libe.a(_floatdisf.o)
 .debug_line    0x00012539       0xff c:/program files (x86)/microchip/xc32/v1.40/bin/bin/../../lib/gcc/pic32mx/4.8.3\libgcc.a(_umoddi3.o)
 .debug_line    0x00012638       0x8a c:/program files (x86)/microchip/xc32/v1.40/bin/bin/../../lib/gcc/pic32mx/4.8.3\libgcc.a(floatunsisf.o)

.debug_frame    0x00000000     0x52a4
 *(.debug_frame)
 .debug_frame   0x00000000       0x80 build/default/production/_ext/337818580/drv_can_static.o
 .debug_frame   0x00000080       0x58 build/default/production/_ext/639803181/sys_clk_static.o
 .debug_frame   0x000000d8       0x20 build/default/production/_ext/822048611/sys_ports_static.o
 .debug_frame   0x000000f8       0x44 build/default/production/_ext/1688732426/system_init.o
 .debug_frame   0x0000013c      0x170 build/default/production/_ext/1688732426/system_interrupt.o
 .debug_frame   0x000002ac       0x28 build/default/production/_ext/1688732426/system_exceptions.o
 .debug_frame   0x000002d4       0x28 build/default/production/_ext/1688732426/system_tasks.o
 .debug_frame   0x000002fc       0x68 build/default/production/_ext/1360937237/app.o
 .debug_frame   0x00000364       0x28 build/default/production/_ext/1360937237/main.o
 .debug_frame   0x0000038c       0x54 build/default/production/_ext/1360937237/app1.o
 .debug_frame   0x000003e0       0x54 build/default/production/_ext/1360937237/app2.o
 .debug_frame   0x00000434       0xa0 build/default/production/_ext/660089376/bsp_sys_init.o
 .debug_frame   0x000004d4       0x80 build/default/production/_ext/1886890887/random.o
 .debug_frame   0x00000554       0x30 build/default/production/_ext/1886890887/arc4.o
 .debug_frame   0x00000584      0x114 build/default/production/_ext/1886890887/crypto.o
 .debug_frame   0x00000698      0x464 build/default/production/_ext/1908841681/drv_ethmac.o
 .debug_frame   0x00000afc      0x290 build/default/production/_ext/1908841681/drv_ethmac_lib.o
 .debug_frame   0x00000d8c      0x6d4 build/default/production/_ext/732687875/drv_ethphy.o
 .debug_frame   0x00001460       0x60 build/default/production/_ext/732687875/drv_extphy_smsc8740.o
 .debug_frame   0x000014c0      0x3bc build/default/production/_ext/185269848/drv_tmr.o
 .debug_frame   0x0000187c       0xe8 build/default/production/_ext/1271179505/sys_devcon.o
 .debug_frame   0x00001964      0x220 build/default/production/_ext/1271179505/sys_devcon_pic32mz.o
 .debug_frame   0x00001b84       0x90 build/default/production/_ext/122796885/sys_int_pic32.o
 .debug_frame   0x00001c14      0x1d0 build/default/production/_ext/77319752/sys_ports.o
 .debug_frame   0x00001de4       0xe4 build/default/production/_ext/1283840359/sys_random.o
 .debug_frame   0x00001ec8      0x208 build/default/production/_ext/1264926591/sys_tmr.o
 .debug_frame   0x000020d0      0x158 build/default/production/_ext/1136935090/big_int.o
 .debug_frame   0x00002228      0x114 build/default/production/_ext/1136935090/hashes.o
 .debug_frame   0x0000233c       0xa4 build/default/production/_ext/1136935090/helpers.o
 .debug_frame   0x000023e0       0x3c build/default/production/_ext/1136935090/lfsr.o
 .debug_frame   0x0000241c      0x718 build/default/production/_ext/1408260596/tcp.o
 .debug_frame   0x00002b34      0x5f0 build/default/production/_ext/1408260596/udp.o
 .debug_frame   0x00003124      0x3e8 build/default/production/_ext/1408260596/arp.o
 .debug_frame   0x0000350c       0x80 build/default/production/_ext/1408260596/dhcp.o
 .debug_frame   0x0000358c       0xfc build/default/production/_ext/1408260596/icmp.o
 .debug_frame   0x00003688       0xa4 build/default/production/_ext/1408260596/nbns.o
 .debug_frame   0x0000372c       0x2c build/default/production/_ext/1408260596/zero_conf_helper.o
 .debug_frame   0x00003758      0x130 build/default/production/_ext/1408260596/zero_conf_link_local.o
 .debug_frame   0x00003888       0xa8 build/default/production/_ext/1408260596/tcpip_announce.o
 .debug_frame   0x00003930       0x30 build/default/production/_ext/1408260596/hash_fnv.o
 .debug_frame   0x00003960       0xb4 build/default/production/_ext/1408260596/oahash.o
 .debug_frame   0x00003a14      0x100 build/default/production/_ext/1408260596/tcpip_heap_alloc.o
 .debug_frame   0x00003b14      0x528 build/default/production/_ext/1408260596/tcpip_helpers.o
 .debug_frame   0x0000403c      0x8e8 build/default/production/_ext/1408260596/tcpip_manager.o
 .debug_frame   0x00004924       0x94 build/default/production/_ext/1408260596/tcpip_notify.o
 .debug_frame   0x000049b8      0x18c build/default/production/_ext/1408260596/tcpip_packet.o
 .debug_frame   0x00004b44      0x144 build/default/production/_ext/1408260596/ipv4.o
 .debug_frame   0x00004c88       0x20 c:/program files (x86)/microchip/xc32/v1.40/bin/bin/../../lib/gcc/pic32mx/4.8.3\libgcc.a(_udivdi3.o)
 .debug_frame   0x00004ca8       0x2c c:/program files (x86)/microchip/xc32/v1.40/bin/bin/../../lib/gcc/pic32mx/4.8.3/../../../../pic32mx/lib\libpic32.a(default-bootstrap-exception-handler.o)
 .debug_frame   0x00004cd4       0x20 c:/program files (x86)/microchip/xc32/v1.40/bin/bin/../../lib/gcc/pic32mx/4.8.3/../../../../pic32mx/lib\libpic32.a(default-on-reset.o)
 .debug_frame   0x00004cf4       0x20 c:/program files (x86)/microchip/xc32/v1.40/bin/bin/../../lib/gcc/pic32mx/4.8.3/../../../../pic32mx/lib\libpic32.a(default-on-bootstrap.o)
 .debug_frame   0x00004d14       0x20 c:/program files (x86)/microchip/xc32/v1.40/bin/bin/../../lib/gcc/pic32mx/4.8.3/../../../../pic32mx/lib\libpic32.a(defaultinterrupt.o)
 .debug_frame   0x00004d34       0x2c c:/program files (x86)/microchip/xc32/v1.40/bin/bin/../../lib/gcc/pic32mx/4.8.3/../../../../pic32mx/lib\libpic32.a(default-cache-err-exception-handler.o)
 .debug_frame   0x00004d60       0x2c c:/program files (x86)/microchip/xc32/v1.40/bin/bin/../../lib/gcc/pic32mx/4.8.3/../../../../pic32mx/lib\libpic32.a(default-simple-tlb-refill-exception-handler.o)
 .debug_frame   0x00004d8c       0x68 c:/program files (x86)/microchip/xc32/v1.40/bin/bin/../../lib/gcc/pic32mx/4.8.3/../../../../pic32mx/lib\libc.a(malloc.o)
 .debug_frame   0x00004df4       0x30 c:/program files (x86)/microchip/xc32/v1.40/bin/bin/../../lib/gcc/pic32mx/4.8.3/../../../../pic32mx/lib\libc.a(rand.o)
 .debug_frame   0x00004e24       0x20 c:/program files (x86)/microchip/xc32/v1.40/bin/bin/../../lib/gcc/pic32mx/4.8.3/../../../../pic32mx/lib\libc.a(strcat.o)
 .debug_frame   0x00004e44       0x20 c:/program files (x86)/microchip/xc32/v1.40/bin/bin/../../lib/gcc/pic32mx/4.8.3/../../../../pic32mx/lib\libc.a(strncpy.o)
 .debug_frame   0x00004e64       0x58 c:/program files (x86)/microchip/xc32/v1.40/bin/bin/../../lib/gcc/pic32mx/4.8.3/../../../../pic32mx/lib\libc.a(strtol.o)
 .debug_frame   0x00004ebc       0x28 c:/program files (x86)/microchip/xc32/v1.40/bin/bin/../../lib/gcc/pic32mx/4.8.3/../../../../pic32mx/lib\libc.a(sprintf_cdnopsuxX.eo)
 .debug_frame   0x00004ee4       0x28 c:/program files (x86)/microchip/xc32/v1.40/bin/bin/../../lib/gcc/pic32mx/4.8.3/../../../../pic32mx/lib\libc.a(sprintf.o)
 .debug_frame   0x00004f0c       0x2c c:/program files (x86)/microchip/xc32/v1.40/bin/bin/../../lib/gcc/pic32mx/4.8.3/../../../../pic32mx/lib\libc.a(vsnprintf.o)
 .debug_frame   0x00004f38      0x120 c:/program files (x86)/microchip/xc32/v1.40/bin/bin/../../lib/gcc/pic32mx/4.8.3/../../../../pic32mx/lib\libc.a(ctypef.o)
 .debug_frame   0x00005058       0x38 c:/program files (x86)/microchip/xc32/v1.40/bin/bin/../../lib/gcc/pic32mx/4.8.3/../../../../pic32mx/lib\libc.a(doprnt_cdnopsuxX.eo)
 .debug_frame   0x00005090       0x74 c:/program files (x86)/microchip/xc32/v1.40/bin/bin/../../lib/gcc/pic32mx/4.8.3/../../../../pic32mx/lib\libc.a(doprnt.o)
 .debug_frame   0x00005104       0x2c c:/program files (x86)/microchip/xc32/v1.40/bin/bin/../../lib/gcc/pic32mx/4.8.3/../../../../pic32mx/lib\libc.a(_fputc_simple.o)
 .debug_frame   0x00005130       0x28 c:/program files (x86)/microchip/xc32/v1.40/bin/bin/../../lib/gcc/pic32mx/4.8.3/../../../../pic32mx/lib\libc.a(_flsbuf_simple.o)
 .debug_frame   0x00005158       0x84 c:/program files (x86)/microchip/xc32/v1.40/bin/bin/../../lib/gcc/pic32mx/4.8.3/../../../../pic32mx/lib\libpic32.a(sbrk.o)
 .debug_frame   0x000051dc       0x38 c:/program files (x86)/microchip/xc32/v1.40/bin/bin/../../lib/gcc/pic32mx/4.8.3/../../../../pic32mx/lib\libpic32.a(write.o)
 .debug_frame   0x00005214       0x28 c:/program files (x86)/microchip/xc32/v1.40/bin/bin/../../lib/gcc/pic32mx/4.8.3/../../../../pic32mx/lib\libpic32.a(_mon_putc.o)
 .debug_frame   0x0000523c       0x20 c:/program files (x86)/microchip/xc32/v1.40/bin/bin/../../lib/gcc/pic32mx/4.8.3/../../../../pic32mx/lib\libe.a(_floatdisf.o)
 .debug_frame   0x0000525c       0x20 c:/program files (x86)/microchip/xc32/v1.40/bin/bin/../../lib/gcc/pic32mx/4.8.3\libgcc.a(_umoddi3.o)
 .debug_frame   0x0000527c       0x28 c:/program files (x86)/microchip/xc32/v1.40/bin/bin/../../lib/gcc/pic32mx/4.8.3\libgcc.a(floatunsisf.o)

.debug_str      0x00000000     0x14e8
 *(.debug_str)
 .debug_str     0x00000000       0xe3 build/default/production/_ext/337818580/drv_can_static.o
 .debug_str     0x000000e3       0x46 build/default/production/_ext/639803181/sys_clk_static.o
 .debug_str     0x00000129       0x56 build/default/production/_ext/822048611/sys_ports_static.o
 .debug_str     0x0000017f       0x78 build/default/production/_ext/1688732426/system_init.o
 .debug_str     0x000001f7       0x1e build/default/production/_ext/1688732426/system_interrupt.o
 .debug_str     0x00000215        0x0 build/default/production/_ext/1688732426/system_exceptions.o
 .debug_str     0x00000215       0x16 build/default/production/_ext/1688732426/system_tasks.o
 .debug_str     0x0000022b        0x5 build/default/production/_ext/1360937237/app.o
 .debug_str     0x00000230        0x0 build/default/production/_ext/1360937237/main.o
 .debug_str     0x00000230        0xa build/default/production/_ext/1360937237/app1.o
 .debug_str     0x0000023a        0xa build/default/production/_ext/1360937237/app2.o
 .debug_str     0x00000244       0x15 build/default/production/_ext/660089376/bsp_sys_init.o
 .debug_str     0x00000259        0x0 build/default/production/_ext/1886890887/random.o
 .debug_str     0x00000259        0x0 build/default/production/_ext/1886890887/arc4.o
 .debug_str     0x00000259       0x1d build/default/production/_ext/1886890887/crypto.o
 .debug_str     0x00000276      0x175 build/default/production/_ext/1908841681/drv_ethmac.o
 .debug_str     0x000003eb      0x160 build/default/production/_ext/1908841681/drv_ethmac_lib.o
 .debug_str     0x0000054b      0x475 build/default/production/_ext/732687875/drv_ethphy.o
 .debug_str     0x000009c0       0x2a build/default/production/_ext/732687875/drv_extphy_smsc8740.o
 .debug_str     0x000009ea       0xd5 build/default/production/_ext/185269848/drv_tmr.o
 .debug_str     0x00000abf       0x16 build/default/production/_ext/1271179505/sys_devcon.o
 .debug_str     0x00000ad5       0x1a build/default/production/_ext/1271179505/sys_devcon_pic32mz.o
 .debug_str     0x00000aef       0x2d build/default/production/_ext/122796885/sys_int_pic32.o
 .debug_str     0x00000b1c       0x98 build/default/production/_ext/77319752/sys_ports.o
 .debug_str     0x00000bb4       0x1d build/default/production/_ext/1283840359/sys_random.o
 .debug_str     0x00000bd1       0x7d build/default/production/_ext/1264926591/sys_tmr.o
 .debug_str     0x00000c4e        0x0 build/default/production/_ext/1136935090/big_int.o
 .debug_str     0x00000c4e       0x10 build/default/production/_ext/1136935090/hashes.o
 .debug_str     0x00000c5e        0x0 build/default/production/_ext/1136935090/helpers.o
 .debug_str     0x00000c5e        0x0 build/default/production/_ext/1136935090/lfsr.o
 .debug_str     0x00000c5e      0x1a8 build/default/production/_ext/1408260596/tcp.o
 .debug_str     0x00000e06      0x164 build/default/production/_ext/1408260596/udp.o
 .debug_str     0x00000f6a       0xd0 build/default/production/_ext/1408260596/arp.o
 .debug_str     0x0000103a        0x5 build/default/production/_ext/1408260596/dhcp.o
 .debug_str     0x0000103f       0x70 build/default/production/_ext/1408260596/icmp.o
 .debug_str     0x000010af       0x24 build/default/production/_ext/1408260596/nbns.o
 .debug_str     0x000010d3        0x0 build/default/production/_ext/1408260596/zero_conf_helper.o
 .debug_str     0x000010d3       0x4b build/default/production/_ext/1408260596/zero_conf_link_local.o
 .debug_str     0x0000111e       0x24 build/default/production/_ext/1408260596/tcpip_announce.o
 .debug_str     0x00001142        0x0 build/default/production/_ext/1408260596/hash_fnv.o
 .debug_str     0x00001142        0xa build/default/production/_ext/1408260596/oahash.o
 .debug_str     0x0000114c       0x47 build/default/production/_ext/1408260596/tcpip_heap_alloc.o
 .debug_str     0x00001193       0x54 build/default/production/_ext/1408260596/tcpip_helpers.o
 .debug_str     0x000011e7      0x29b build/default/production/_ext/1408260596/tcpip_manager.o
 .debug_str     0x00001482       0x11 build/default/production/_ext/1408260596/tcpip_notify.o
 .debug_str     0x00001493       0x29 build/default/production/_ext/1408260596/tcpip_packet.o
 .debug_str     0x000014bc       0x2c build/default/production/_ext/1408260596/ipv4.o
 .debug_str     0x000014e8        0x0 c:/program files (x86)/microchip/xc32/v1.40/bin/bin/../../lib/gcc/pic32mx/4.8.3\libgcc.a(_udivdi3.o)
 .debug_str     0x000014e8        0x0 c:/program files (x86)/microchip/xc32/v1.40/bin/bin/../../lib/gcc/pic32mx/4.8.3/../../../../pic32mx/lib\libpic32.a(default-bootstrap-exception-handler.o)
 .debug_str     0x000014e8        0x0 c:/program files (x86)/microchip/xc32/v1.40/bin/bin/../../lib/gcc/pic32mx/4.8.3/../../../../pic32mx/lib\libpic32.a(default-on-reset.o)
 .debug_str     0x000014e8        0x0 c:/program files (x86)/microchip/xc32/v1.40/bin/bin/../../lib/gcc/pic32mx/4.8.3/../../../../pic32mx/lib\libpic32.a(default-on-bootstrap.o)
 .debug_str     0x000014e8        0x0 c:/program files (x86)/microchip/xc32/v1.40/bin/bin/../../lib/gcc/pic32mx/4.8.3/../../../../pic32mx/lib\libpic32.a(defaultinterrupt.o)
 .debug_str     0x000014e8        0x0 c:/program files (x86)/microchip/xc32/v1.40/bin/bin/../../lib/gcc/pic32mx/4.8.3/../../../../pic32mx/lib\libpic32.a(default-cache-err-exception-handler.o)
 .debug_str     0x000014e8        0x0 c:/program files (x86)/microchip/xc32/v1.40/bin/bin/../../lib/gcc/pic32mx/4.8.3/../../../../pic32mx/lib\libpic32.a(default-simple-tlb-refill-exception-handler.o)
 .debug_str     0x000014e8        0x0 c:/program files (x86)/microchip/xc32/v1.40/bin/bin/../../lib/gcc/pic32mx/4.8.3/../../../../pic32mx/lib\libc.a(ctype.o)
 .debug_str     0x000014e8        0x0 c:/program files (x86)/microchip/xc32/v1.40/bin/bin/../../lib/gcc/pic32mx/4.8.3/../../../../pic32mx/lib\libc.a(malloc.o)
 .debug_str     0x000014e8        0x0 c:/program files (x86)/microchip/xc32/v1.40/bin/bin/../../lib/gcc/pic32mx/4.8.3/../../../../pic32mx/lib\libc.a(rand.o)
 .debug_str     0x000014e8        0x0 c:/program files (x86)/microchip/xc32/v1.40/bin/bin/../../lib/gcc/pic32mx/4.8.3/../../../../pic32mx/lib\libc.a(strcat.o)
 .debug_str     0x000014e8        0x0 c:/program files (x86)/microchip/xc32/v1.40/bin/bin/../../lib/gcc/pic32mx/4.8.3/../../../../pic32mx/lib\libc.a(strncpy.o)
 .debug_str     0x000014e8        0x0 c:/program files (x86)/microchip/xc32/v1.40/bin/bin/../../lib/gcc/pic32mx/4.8.3/../../../../pic32mx/lib\libc.a(strtol.o)
 .debug_str     0x000014e8        0x0 c:/program files (x86)/microchip/xc32/v1.40/bin/bin/../../lib/gcc/pic32mx/4.8.3/../../../../pic32mx/lib\libc.a(sprintf_cdnopsuxX.eo)
 .debug_str     0x000014e8        0x0 c:/program files (x86)/microchip/xc32/v1.40/bin/bin/../../lib/gcc/pic32mx/4.8.3/../../../../pic32mx/lib\libc.a(sprintf.o)
 .debug_str     0x000014e8        0x0 c:/program files (x86)/microchip/xc32/v1.40/bin/bin/../../lib/gcc/pic32mx/4.8.3/../../../../pic32mx/lib\libc.a(vsnprintf.o)
 .debug_str     0x000014e8        0x0 c:/program files (x86)/microchip/xc32/v1.40/bin/bin/../../lib/gcc/pic32mx/4.8.3/../../../../pic32mx/lib\libc.a(ctypef.o)
 .debug_str     0x000014e8        0x0 c:/program files (x86)/microchip/xc32/v1.40/bin/bin/../../lib/gcc/pic32mx/4.8.3/../../../../pic32mx/lib\libc.a(errno.o)
 .debug_str     0x000014e8        0x0 c:/program files (x86)/microchip/xc32/v1.40/bin/bin/../../lib/gcc/pic32mx/4.8.3/../../../../pic32mx/lib\libc.a(doprnt_cdnopsuxX.eo)
 .debug_str     0x000014e8        0x0 c:/program files (x86)/microchip/xc32/v1.40/bin/bin/../../lib/gcc/pic32mx/4.8.3/../../../../pic32mx/lib\libc.a(doprnt.o)
 .debug_str     0x000014e8        0x0 c:/program files (x86)/microchip/xc32/v1.40/bin/bin/../../lib/gcc/pic32mx/4.8.3/../../../../pic32mx/lib\libc.a(_fputc_simple.o)
 .debug_str     0x000014e8        0x0 c:/program files (x86)/microchip/xc32/v1.40/bin/bin/../../lib/gcc/pic32mx/4.8.3/../../../../pic32mx/lib\libc.a(powersf.o)
 .debug_str     0x000014e8        0x0 c:/program files (x86)/microchip/xc32/v1.40/bin/bin/../../lib/gcc/pic32mx/4.8.3/../../../../pic32mx/lib\libc.a(_iob.o)
 .debug_str     0x000014e8        0x0 c:/program files (x86)/microchip/xc32/v1.40/bin/bin/../../lib/gcc/pic32mx/4.8.3/../../../../pic32mx/lib\libc.a(_flsbuf_simple.o)
 .debug_str     0x000014e8        0x0 c:/program files (x86)/microchip/xc32/v1.40/bin/bin/../../lib/gcc/pic32mx/4.8.3/../../../../pic32mx/lib\libpic32.a(sbrk.o)
 .debug_str     0x000014e8        0x0 c:/program files (x86)/microchip/xc32/v1.40/bin/bin/../../lib/gcc/pic32mx/4.8.3/../../../../pic32mx/lib\libpic32.a(write.o)
 .debug_str     0x000014e8        0x0 c:/program files (x86)/microchip/xc32/v1.40/bin/bin/../../lib/gcc/pic32mx/4.8.3/../../../../pic32mx/lib\libpic32.a(_mon_putc.o)
 .debug_str     0x000014e8        0x0 c:/program files (x86)/microchip/xc32/v1.40/bin/bin/../../lib/gcc/pic32mx/4.8.3/../../../../pic32mx/lib\libpic32.a(xc32_uart.o)
 .debug_str     0x000014e8        0x0 c:/program files (x86)/microchip/xc32/v1.40/bin/bin/../../lib/gcc/pic32mx/4.8.3/../../../../pic32mx/lib\libe.a(_floatdisf.o)
 .debug_str     0x000014e8        0x0 c:/program files (x86)/microchip/xc32/v1.40/bin/bin/../../lib/gcc/pic32mx/4.8.3\libgcc.a(_umoddi3.o)
 .debug_str     0x000014e8        0x0 c:/program files (x86)/microchip/xc32/v1.40/bin/bin/../../lib/gcc/pic32mx/4.8.3\libgcc.a(floatunsisf.o)

.debug_loc      0x00000000    0x24eca
 *(.debug_loc)
 .debug_loc     0x00000000      0x25c build/default/production/_ext/337818580/drv_can_static.o
 .debug_loc     0x0000025c       0x50 build/default/production/_ext/639803181/sys_clk_static.o
 .debug_loc     0x000002ac       0x35 build/default/production/_ext/1688732426/system_init.o
 .debug_loc     0x000002e1       0x7e build/default/production/_ext/1688732426/system_interrupt.o
 .debug_loc     0x0000035f      0x3ab build/default/production/_ext/1360937237/app.o
 .debug_loc     0x0000070a      0x1d9 build/default/production/_ext/1360937237/app1.o
 .debug_loc     0x000008e3      0x1d9 build/default/production/_ext/1360937237/app2.o
 .debug_loc     0x00000abc      0x171 build/default/production/_ext/660089376/bsp_sys_init.o
 .debug_loc     0x00000c2d      0x1b4 build/default/production/_ext/1886890887/random.o
 .debug_loc     0x00000de1      0x1b5 build/default/production/_ext/1886890887/arc4.o
 .debug_loc     0x00000f96      0x504 build/default/production/_ext/1886890887/crypto.o
 .debug_loc     0x0000149a     0x21ef build/default/production/_ext/1908841681/drv_ethmac.o
 .debug_loc     0x00003689     0x2795 build/default/production/_ext/1908841681/drv_ethmac_lib.o
 .debug_loc     0x00005e1e     0x327f build/default/production/_ext/732687875/drv_ethphy.o
 .debug_loc     0x0000909d      0x250 build/default/production/_ext/732687875/drv_extphy_smsc8740.o
 .debug_loc     0x000092ed     0x4833 build/default/production/_ext/185269848/drv_tmr.o
 .debug_loc     0x0000db20       0xf0 build/default/production/_ext/1271179505/sys_devcon.o
 .debug_loc     0x0000dc10      0x3ed build/default/production/_ext/1271179505/sys_devcon_pic32mz.o
 .debug_loc     0x0000dffd       0x8d build/default/production/_ext/122796885/sys_int_pic32.o
 .debug_loc     0x0000e08a      0xea2 build/default/production/_ext/77319752/sys_ports.o
 .debug_loc     0x0000ef2c       0xe8 build/default/production/_ext/1283840359/sys_random.o
 .debug_loc     0x0000f014      0xd11 build/default/production/_ext/1264926591/sys_tmr.o
 .debug_loc     0x0000fd25      0x4c5 build/default/production/_ext/1136935090/big_int.o
 .debug_loc     0x000101ea      0xade build/default/production/_ext/1136935090/hashes.o
 .debug_loc     0x00010cc8      0x4c3 build/default/production/_ext/1136935090/helpers.o
 .debug_loc     0x0001118b       0xc8 build/default/production/_ext/1136935090/lfsr.o
 .debug_loc     0x00011253     0x4a64 build/default/production/_ext/1408260596/tcp.o
 .debug_loc     0x00015cb7     0x308a build/default/production/_ext/1408260596/udp.o
 .debug_loc     0x00018d41     0x1dfa build/default/production/_ext/1408260596/arp.o
 .debug_loc     0x0001ab3b      0x586 build/default/production/_ext/1408260596/icmp.o
 .debug_loc     0x0001b0c1      0x440 build/default/production/_ext/1408260596/nbns.o
 .debug_loc     0x0001b501       0xc9 build/default/production/_ext/1408260596/zero_conf_helper.o
 .debug_loc     0x0001b5ca      0x734 build/default/production/_ext/1408260596/zero_conf_link_local.o
 .debug_loc     0x0001bcfe      0x3e3 build/default/production/_ext/1408260596/tcpip_announce.o
 .debug_loc     0x0001c0e1      0x137 build/default/production/_ext/1408260596/hash_fnv.o
 .debug_loc     0x0001c218      0x2b1 build/default/production/_ext/1408260596/oahash.o
 .debug_loc     0x0001c4c9      0x9f0 build/default/production/_ext/1408260596/tcpip_heap_alloc.o
 .debug_loc     0x0001ceb9     0x2412 build/default/production/_ext/1408260596/tcpip_helpers.o
 .debug_loc     0x0001f2cb     0x2ed0 build/default/production/_ext/1408260596/tcpip_manager.o
 .debug_loc     0x0002219b      0x20a build/default/production/_ext/1408260596/tcpip_notify.o
 .debug_loc     0x000223a5      0x9d3 build/default/production/_ext/1408260596/tcpip_packet.o
 .debug_loc     0x00022d78      0xc37 build/default/production/_ext/1408260596/ipv4.o
 .debug_loc     0x000239af      0xa6a c:/program files (x86)/microchip/xc32/v1.40/bin/bin/../../lib/gcc/pic32mx/4.8.3\libgcc.a(_udivdi3.o)
 .debug_loc     0x00024419      0xa3d c:/program files (x86)/microchip/xc32/v1.40/bin/bin/../../lib/gcc/pic32mx/4.8.3\libgcc.a(_umoddi3.o)
 .debug_loc     0x00024e56       0x74 c:/program files (x86)/microchip/xc32/v1.40/bin/bin/../../lib/gcc/pic32mx/4.8.3\libgcc.a(floatunsisf.o)

.debug_macinfo
 *(.debug_macinfo)

.debug_weaknames
 *(.debug_weaknames)

.debug_funcnames
 *(.debug_funcnames)

.debug_typenames
 *(.debug_typenames)

.debug_varnames
 *(.debug_varnames)

.debug_pubtypes
 *(.debug_pubtypes)

.debug_ranges   0x00000000     0x3e48
 *(.debug_ranges)
 .debug_ranges  0x00000000      0x100 build/default/production/_ext/337818580/drv_can_static.o
 .debug_ranges  0x00000100       0x28 build/default/production/_ext/639803181/sys_clk_static.o
 .debug_ranges  0x00000128       0x10 build/default/production/_ext/822048611/sys_ports_static.o
 .debug_ranges  0x00000138       0x18 build/default/production/_ext/1688732426/system_init.o
 .debug_ranges  0x00000150       0x28 build/default/production/_ext/1688732426/system_interrupt.o
 .debug_ranges  0x00000178       0x10 build/default/production/_ext/1688732426/system_exceptions.o
 .debug_ranges  0x00000188       0x10 build/default/production/_ext/1688732426/system_tasks.o
 .debug_ranges  0x00000198       0x40 build/default/production/_ext/1360937237/app.o
 .debug_ranges  0x000001d8       0x10 build/default/production/_ext/1360937237/main.o
 .debug_ranges  0x000001e8       0x50 build/default/production/_ext/1360937237/app1.o
 .debug_ranges  0x00000238       0x38 build/default/production/_ext/1360937237/app2.o
 .debug_ranges  0x00000270       0x68 build/default/production/_ext/660089376/bsp_sys_init.o
 .debug_ranges  0x000002d8       0x28 build/default/production/_ext/1886890887/random.o
 .debug_ranges  0x00000300       0x18 build/default/production/_ext/1886890887/arc4.o
 .debug_ranges  0x00000318       0x48 build/default/production/_ext/1886890887/crypto.o
 .debug_ranges  0x00000360      0x1f0 build/default/production/_ext/1908841681/drv_ethmac.o
 .debug_ranges  0x00000550      0x488 build/default/production/_ext/1908841681/drv_ethmac_lib.o
 .debug_ranges  0x000009d8      0x2d0 build/default/production/_ext/732687875/drv_ethphy.o
 .debug_ranges  0x00000ca8       0x20 build/default/production/_ext/732687875/drv_extphy_smsc8740.o
 .debug_ranges  0x00000cc8      0x9b8 build/default/production/_ext/185269848/drv_tmr.o
 .debug_ranges  0x00001680       0x68 build/default/production/_ext/1271179505/sys_devcon.o
 .debug_ranges  0x000016e8       0xd8 build/default/production/_ext/1271179505/sys_devcon_pic32mz.o
 .debug_ranges  0x000017c0       0x50 build/default/production/_ext/122796885/sys_int_pic32.o
 .debug_ranges  0x00001810       0xe8 build/default/production/_ext/77319752/sys_ports.o
 .debug_ranges  0x000018f8       0x58 build/default/production/_ext/1283840359/sys_random.o
 .debug_ranges  0x00001950      0x158 build/default/production/_ext/1264926591/sys_tmr.o
 .debug_ranges  0x00001aa8       0x70 build/default/production/_ext/1136935090/big_int.o
 .debug_ranges  0x00001b18       0x50 build/default/production/_ext/1136935090/hashes.o
 .debug_ranges  0x00001b68       0x48 build/default/production/_ext/1136935090/helpers.o
 .debug_ranges  0x00001bb0       0x18 build/default/production/_ext/1136935090/lfsr.o
 .debug_ranges  0x00001bc8      0x900 build/default/production/_ext/1408260596/tcp.o
 .debug_ranges  0x000024c8      0x518 build/default/production/_ext/1408260596/udp.o
 .debug_ranges  0x000029e0      0x180 build/default/production/_ext/1408260596/arp.o
 .debug_ranges  0x00002b60       0x40 build/default/production/_ext/1408260596/dhcp.o
 .debug_ranges  0x00002ba0       0xd8 build/default/production/_ext/1408260596/icmp.o
 .debug_ranges  0x00002c78       0xc8 build/default/production/_ext/1408260596/nbns.o
 .debug_ranges  0x00002d40       0x10 build/default/production/_ext/1408260596/zero_conf_helper.o
 .debug_ranges  0x00002d50      0x118 build/default/production/_ext/1408260596/zero_conf_link_local.o
 .debug_ranges  0x00002e68       0x88 build/default/production/_ext/1408260596/tcpip_announce.o
 .debug_ranges  0x00002ef0       0x18 build/default/production/_ext/1408260596/hash_fnv.o
 .debug_ranges  0x00002f08       0x40 build/default/production/_ext/1408260596/oahash.o
 .debug_ranges  0x00002f48       0xa0 build/default/production/_ext/1408260596/tcpip_heap_alloc.o
 .debug_ranges  0x00002fe8      0x2b0 build/default/production/_ext/1408260596/tcpip_helpers.o
 .debug_ranges  0x00003298      0x600 build/default/production/_ext/1408260596/tcpip_manager.o
 .debug_ranges  0x00003898       0x30 build/default/production/_ext/1408260596/tcpip_notify.o
 .debug_ranges  0x000038c8       0x90 build/default/production/_ext/1408260596/tcpip_packet.o
 .debug_ranges  0x00003958      0x140 build/default/production/_ext/1408260596/ipv4.o
 .debug_ranges  0x00003a98       0x98 c:/program files (x86)/microchip/xc32/v1.40/bin/bin/../../lib/gcc/pic32mx/4.8.3\libgcc.a(_udivdi3.o)
 .debug_ranges  0x00003b30       0x10 c:/program files (x86)/microchip/xc32/v1.40/bin/bin/../../lib/gcc/pic32mx/4.8.3/../../../../pic32mx/lib\libpic32.a(default-bootstrap-exception-handler.o)
 .debug_ranges  0x00003b40       0x10 c:/program files (x86)/microchip/xc32/v1.40/bin/bin/../../lib/gcc/pic32mx/4.8.3/../../../../pic32mx/lib\libpic32.a(default-on-reset.o)
 .debug_ranges  0x00003b50       0x10 c:/program files (x86)/microchip/xc32/v1.40/bin/bin/../../lib/gcc/pic32mx/4.8.3/../../../../pic32mx/lib\libpic32.a(default-on-bootstrap.o)
 .debug_ranges  0x00003b60       0x10 c:/program files (x86)/microchip/xc32/v1.40/bin/bin/../../lib/gcc/pic32mx/4.8.3/../../../../pic32mx/lib\libpic32.a(defaultinterrupt.o)
 .debug_ranges  0x00003b70       0x10 c:/program files (x86)/microchip/xc32/v1.40/bin/bin/../../lib/gcc/pic32mx/4.8.3/../../../../pic32mx/lib\libpic32.a(default-cache-err-exception-handler.o)
 .debug_ranges  0x00003b80       0x10 c:/program files (x86)/microchip/xc32/v1.40/bin/bin/../../lib/gcc/pic32mx/4.8.3/../../../../pic32mx/lib\libpic32.a(default-simple-tlb-refill-exception-handler.o)
 .debug_ranges  0x00003b90       0x20 c:/program files (x86)/microchip/xc32/v1.40/bin/bin/../../lib/gcc/pic32mx/4.8.3/../../../../pic32mx/lib\libc.a(malloc.o)
 .debug_ranges  0x00003bb0       0x18 c:/program files (x86)/microchip/xc32/v1.40/bin/bin/../../lib/gcc/pic32mx/4.8.3/../../../../pic32mx/lib\libc.a(rand.o)
 .debug_ranges  0x00003bc8       0x10 c:/program files (x86)/microchip/xc32/v1.40/bin/bin/../../lib/gcc/pic32mx/4.8.3/../../../../pic32mx/lib\libc.a(strcat.o)
 .debug_ranges  0x00003bd8       0x10 c:/program files (x86)/microchip/xc32/v1.40/bin/bin/../../lib/gcc/pic32mx/4.8.3/../../../../pic32mx/lib\libc.a(strncpy.o)
 .debug_ranges  0x00003be8       0x18 c:/program files (x86)/microchip/xc32/v1.40/bin/bin/../../lib/gcc/pic32mx/4.8.3/../../../../pic32mx/lib\libc.a(strtol.o)
 .debug_ranges  0x00003c00       0x10 c:/program files (x86)/microchip/xc32/v1.40/bin/bin/../../lib/gcc/pic32mx/4.8.3/../../../../pic32mx/lib\libc.a(sprintf_cdnopsuxX.eo)
 .debug_ranges  0x00003c10       0x10 c:/program files (x86)/microchip/xc32/v1.40/bin/bin/../../lib/gcc/pic32mx/4.8.3/../../../../pic32mx/lib\libc.a(sprintf.o)
 .debug_ranges  0x00003c20       0x10 c:/program files (x86)/microchip/xc32/v1.40/bin/bin/../../lib/gcc/pic32mx/4.8.3/../../../../pic32mx/lib\libc.a(vsnprintf.o)
 .debug_ranges  0x00003c30       0x90 c:/program files (x86)/microchip/xc32/v1.40/bin/bin/../../lib/gcc/pic32mx/4.8.3/../../../../pic32mx/lib\libc.a(ctypef.o)
 .debug_ranges  0x00003cc0       0x10 c:/program files (x86)/microchip/xc32/v1.40/bin/bin/../../lib/gcc/pic32mx/4.8.3/../../../../pic32mx/lib\libc.a(doprnt_cdnopsuxX.eo)
 .debug_ranges  0x00003cd0       0x20 c:/program files (x86)/microchip/xc32/v1.40/bin/bin/../../lib/gcc/pic32mx/4.8.3/../../../../pic32mx/lib\libc.a(doprnt.o)
 .debug_ranges  0x00003cf0       0x10 c:/program files (x86)/microchip/xc32/v1.40/bin/bin/../../lib/gcc/pic32mx/4.8.3/../../../../pic32mx/lib\libc.a(_fputc_simple.o)
 .debug_ranges  0x00003d00       0x10 c:/program files (x86)/microchip/xc32/v1.40/bin/bin/../../lib/gcc/pic32mx/4.8.3/../../../../pic32mx/lib\libc.a(_flsbuf_simple.o)
 .debug_ranges  0x00003d10       0x30 c:/program files (x86)/microchip/xc32/v1.40/bin/bin/../../lib/gcc/pic32mx/4.8.3/../../../../pic32mx/lib\libpic32.a(sbrk.o)
 .debug_ranges  0x00003d40       0x10 c:/program files (x86)/microchip/xc32/v1.40/bin/bin/../../lib/gcc/pic32mx/4.8.3/../../../../pic32mx/lib\libpic32.a(write.o)
 .debug_ranges  0x00003d50       0x10 c:/program files (x86)/microchip/xc32/v1.40/bin/bin/../../lib/gcc/pic32mx/4.8.3/../../../../pic32mx/lib\libpic32.a(_mon_putc.o)
 .debug_ranges  0x00003d60       0x10 c:/program files (x86)/microchip/xc32/v1.40/bin/bin/../../lib/gcc/pic32mx/4.8.3/../../../../pic32mx/lib\libe.a(_floatdisf.o)
 .debug_ranges  0x00003d70       0xd8 c:/program files (x86)/microchip/xc32/v1.40/bin/bin/../../lib/gcc/pic32mx/4.8.3\libgcc.a(_umoddi3.o)

.gnu.attributes
                0x00000000       0x10
 *(.gnu.attributes)
 .gnu.attributes
                0x00000000       0x10 build/default/production/_ext/337818580/drv_can_static.o
 .gnu.attributes
                0x00000010       0x10 build/default/production/_ext/639803181/sys_clk_static.o
 .gnu.attributes
                0x00000020       0x10 build/default/production/_ext/822048611/sys_ports_static.o
 .gnu.attributes
                0x00000030       0x10 build/default/production/_ext/1688732426/system_init.o
 .gnu.attributes
                0x00000040       0x10 build/default/production/_ext/1688732426/system_interrupt.o
 .gnu.attributes
                0x00000050       0x10 build/default/production/_ext/1688732426/system_exceptions.o
 .gnu.attributes
                0x00000060       0x10 build/default/production/_ext/1688732426/system_tasks.o
 .gnu.attributes
                0x00000070       0x10 build/default/production/_ext/1360937237/app.o
 .gnu.attributes
                0x00000080       0x10 build/default/production/_ext/1360937237/main.o
 .gnu.attributes
                0x00000090       0x10 build/default/production/_ext/1360937237/app1.o
 .gnu.attributes
                0x000000a0       0x10 build/default/production/_ext/1360937237/app2.o
 .gnu.attributes
                0x000000b0       0x10 build/default/production/_ext/660089376/bsp_sys_init.o
 .gnu.attributes
                0x000000c0       0x10 build/default/production/_ext/1886890887/random.o
 .gnu.attributes
                0x000000d0       0x10 build/default/production/_ext/1886890887/arc4.o
 .gnu.attributes
                0x000000e0       0x10 build/default/production/_ext/1886890887/crypto.o
 .gnu.attributes
                0x000000f0       0x10 build/default/production/_ext/1908841681/drv_ethmac.o
 .gnu.attributes
                0x00000100       0x10 build/default/production/_ext/1908841681/drv_ethmac_lib.o
 .gnu.attributes
                0x00000110       0x10 build/default/production/_ext/732687875/drv_ethphy.o
 .gnu.attributes
                0x00000120       0x10 build/default/production/_ext/732687875/drv_extphy_smsc8740.o
 .gnu.attributes
                0x00000130       0x10 build/default/production/_ext/185269848/drv_tmr.o
 .gnu.attributes
                0x00000140       0x10 build/default/production/_ext/1271179505/sys_devcon.o
 .gnu.attributes
                0x00000150       0x10 build/default/production/_ext/1271179505/sys_devcon_pic32mz.o
 .gnu.attributes
                0x00000160       0x10 build/default/production/_ext/122796885/sys_int_pic32.o
 .gnu.attributes
                0x00000170       0x10 build/default/production/_ext/77319752/sys_ports.o
 .gnu.attributes
                0x00000180       0x10 build/default/production/_ext/1283840359/sys_random.o
 .gnu.attributes
                0x00000190       0x10 build/default/production/_ext/1264926591/sys_tmr.o
 .gnu.attributes
                0x000001a0       0x10 build/default/production/_ext/1136935090/big_int.o
 .gnu.attributes
                0x000001b0       0x10 build/default/production/_ext/1136935090/hashes.o
 .gnu.attributes
                0x000001c0       0x10 build/default/production/_ext/1136935090/helpers.o
 .gnu.attributes
                0x000001d0       0x10 build/default/production/_ext/1136935090/lfsr.o
 .gnu.attributes
                0x000001e0       0x10 build/default/production/_ext/1408260596/tcp.o
 .gnu.attributes
                0x000001f0       0x10 build/default/production/_ext/1408260596/udp.o
 .gnu.attributes
                0x00000200       0x10 build/default/production/_ext/1408260596/arp.o
 .gnu.attributes
                0x00000210       0x10 build/default/production/_ext/1408260596/dhcp.o
 .gnu.attributes
                0x00000220       0x10 build/default/production/_ext/1408260596/icmp.o
 .gnu.attributes
                0x00000230       0x10 build/default/production/_ext/1408260596/nbns.o
 .gnu.attributes
                0x00000240       0x10 build/default/production/_ext/1408260596/zero_conf_helper.o
 .gnu.attributes
                0x00000250       0x10 build/default/production/_ext/1408260596/zero_conf_link_local.o
 .gnu.attributes
                0x00000260       0x10 build/default/production/_ext/1408260596/tcpip_announce.o
 .gnu.attributes
                0x00000270       0x10 build/default/production/_ext/1408260596/hash_fnv.o
 .gnu.attributes
                0x00000280       0x10 build/default/production/_ext/1408260596/oahash.o
 .gnu.attributes
                0x00000290       0x10 build/default/production/_ext/1408260596/tcpip_heap_alloc.o
 .gnu.attributes
                0x000002a0       0x10 build/default/production/_ext/1408260596/tcpip_helpers.o
 .gnu.attributes
                0x000002b0       0x10 build/default/production/_ext/1408260596/tcpip_manager.o
 .gnu.attributes
                0x000002c0       0x10 build/default/production/_ext/1408260596/tcpip_notify.o
 .gnu.attributes
                0x000002d0       0x10 build/default/production/_ext/1408260596/tcpip_packet.o
 .gnu.attributes
                0x000002e0       0x10 build/default/production/_ext/1408260596/ipv4.o
 .gnu.attributes
                0x000002f0       0x10 ..\..\..\..\bin\framework\peripheral\PIC32MZ2048ECH144_peripherals.a(plib_eth_lib.o)
 .gnu.attributes
                0x00000300       0x10 c:/program files (x86)/microchip/xc32/v1.40/bin/bin/../../lib/gcc/pic32mx/4.8.3\libgcc.a(_udivdi3.o)
 .gnu.attributes
                0x00000310       0x10 c:/program files (x86)/microchip/xc32/v1.40/bin/bin/../../lib/gcc/pic32mx/4.8.3/../../../../pic32mx/lib\libpic32.a(default-bootstrap-exception-handler.o)
 .gnu.attributes
                0x00000320       0x10 c:/program files (x86)/microchip/xc32/v1.40/bin/bin/../../lib/gcc/pic32mx/4.8.3/../../../../pic32mx/lib\libpic32.a(default-on-reset.o)
 .gnu.attributes
                0x00000330       0x10 c:/program files (x86)/microchip/xc32/v1.40/bin/bin/../../lib/gcc/pic32mx/4.8.3/../../../../pic32mx/lib\libpic32.a(default-on-bootstrap.o)
 .gnu.attributes
                0x00000340       0x10 c:/program files (x86)/microchip/xc32/v1.40/bin/bin/../../lib/gcc/pic32mx/4.8.3/../../../../pic32mx/lib\libpic32.a(defaultinterrupt.o)
 .gnu.attributes
                0x00000350       0x10 c:/program files (x86)/microchip/xc32/v1.40/bin/bin/../../lib/gcc/pic32mx/4.8.3/../../../../pic32mx/lib\libpic32.a(default-cache-err-exception-handler.o)
 .gnu.attributes
                0x00000360       0x10 c:/program files (x86)/microchip/xc32/v1.40/bin/bin/../../lib/gcc/pic32mx/4.8.3/../../../../pic32mx/lib\libpic32.a(default-simple-tlb-refill-exception-handler.o)
 .gnu.attributes
                0x00000370       0x10 c:/program files (x86)/microchip/xc32/v1.40/bin/bin/../../lib/gcc/pic32mx/4.8.3/../../../../pic32mx/lib\libc.a(ctype.o)
 .gnu.attributes
                0x00000380       0x10 c:/program files (x86)/microchip/xc32/v1.40/bin/bin/../../lib/gcc/pic32mx/4.8.3/../../../../pic32mx/lib\libc.a(malloc.o)
 .gnu.attributes
                0x00000390       0x10 c:/program files (x86)/microchip/xc32/v1.40/bin/bin/../../lib/gcc/pic32mx/4.8.3/../../../../pic32mx/lib\libc.a(rand.o)
 .gnu.attributes
                0x000003a0       0x10 c:/program files (x86)/microchip/xc32/v1.40/bin/bin/../../lib/gcc/pic32mx/4.8.3/../../../../pic32mx/lib\libc.a(strcat.o)
 .gnu.attributes
                0x000003b0       0x10 c:/program files (x86)/microchip/xc32/v1.40/bin/bin/../../lib/gcc/pic32mx/4.8.3/../../../../pic32mx/lib\libc.a(strncpy.o)
 .gnu.attributes
                0x000003c0       0x10 c:/program files (x86)/microchip/xc32/v1.40/bin/bin/../../lib/gcc/pic32mx/4.8.3/../../../../pic32mx/lib\libc.a(strtol.o)
 .gnu.attributes
                0x000003d0       0x10 c:/program files (x86)/microchip/xc32/v1.40/bin/bin/../../lib/gcc/pic32mx/4.8.3/../../../../pic32mx/lib\libc.a(sprintf_cdnopsuxX.eo)
 .gnu.attributes
                0x000003e0       0x10 c:/program files (x86)/microchip/xc32/v1.40/bin/bin/../../lib/gcc/pic32mx/4.8.3/../../../../pic32mx/lib\libc.a(sprintf.o)
 .gnu.attributes
                0x000003f0       0x10 c:/program files (x86)/microchip/xc32/v1.40/bin/bin/../../lib/gcc/pic32mx/4.8.3/../../../../pic32mx/lib\libc.a(vsnprintf.o)
 .gnu.attributes
                0x00000400       0x10 c:/program files (x86)/microchip/xc32/v1.40/bin/bin/../../lib/gcc/pic32mx/4.8.3/../../../../pic32mx/lib\libc.a(ctypef.o)
 .gnu.attributes
                0x00000410       0x10 c:/program files (x86)/microchip/xc32/v1.40/bin/bin/../../lib/gcc/pic32mx/4.8.3/../../../../pic32mx/lib\libc.a(errno.o)
 .gnu.attributes
                0x00000420       0x10 c:/program files (x86)/microchip/xc32/v1.40/bin/bin/../../lib/gcc/pic32mx/4.8.3/../../../../pic32mx/lib\libc.a(doprnt_cdnopsuxX.eo)
 .gnu.attributes
                0x00000430       0x10 c:/program files (x86)/microchip/xc32/v1.40/bin/bin/../../lib/gcc/pic32mx/4.8.3/../../../../pic32mx/lib\libc.a(doprnt.o)
 .gnu.attributes
                0x00000440       0x10 c:/program files (x86)/microchip/xc32/v1.40/bin/bin/../../lib/gcc/pic32mx/4.8.3/../../../../pic32mx/lib\libc.a(_fputc_simple.o)
 .gnu.attributes
                0x00000450       0x10 c:/program files (x86)/microchip/xc32/v1.40/bin/bin/../../lib/gcc/pic32mx/4.8.3/../../../../pic32mx/lib\libc.a(powersf.o)
 .gnu.attributes
                0x00000460       0x10 c:/program files (x86)/microchip/xc32/v1.40/bin/bin/../../lib/gcc/pic32mx/4.8.3/../../../../pic32mx/lib\libc.a(_iob.o)
 .gnu.attributes
                0x00000470       0x10 c:/program files (x86)/microchip/xc32/v1.40/bin/bin/../../lib/gcc/pic32mx/4.8.3/../../../../pic32mx/lib\libc.a(_flsbuf_simple.o)
 .gnu.attributes
                0x00000480       0x10 c:/program files (x86)/microchip/xc32/v1.40/bin/bin/../../lib/gcc/pic32mx/4.8.3/../../../../pic32mx/lib\libpic32.a(sbrk.o)
 .gnu.attributes
                0x00000490       0x10 c:/program files (x86)/microchip/xc32/v1.40/bin/bin/../../lib/gcc/pic32mx/4.8.3/../../../../pic32mx/lib\libpic32.a(write.o)
 .gnu.attributes
                0x000004a0       0x10 c:/program files (x86)/microchip/xc32/v1.40/bin/bin/../../lib/gcc/pic32mx/4.8.3/../../../../pic32mx/lib\libpic32.a(_mon_putc.o)
 .gnu.attributes
                0x000004b0       0x10 c:/program files (x86)/microchip/xc32/v1.40/bin/bin/../../lib/gcc/pic32mx/4.8.3/../../../../pic32mx/lib\libpic32.a(xc32_uart.o)
 .gnu.attributes
                0x000004c0       0x10 c:/program files (x86)/microchip/xc32/v1.40/bin/bin/../../lib/gcc/pic32mx/4.8.3/../../../../pic32mx/lib\libe.a(_floatdisf.o)
 .gnu.attributes
                0x000004d0       0x10 c:/program files (x86)/microchip/xc32/v1.40/bin/bin/../../lib/gcc/pic32mx/4.8.3\libgcc.a(_umoddi3.o)
 .gnu.attributes
                0x000004e0       0x10 c:/program files (x86)/microchip/xc32/v1.40/bin/bin/../../lib/gcc/pic32mx/4.8.3\libgcc.a(floatunsisf.o)
                0x9d000000                PROVIDE (__pic32_init_cache_program_base_addr, 0x9d000000)
                0x80000000                PROVIDE (__pic32_init_cache_data_base_addr, 0x80000000)
                0xd0000000                PROVIDE (__pic32_init_sqi_kseg2_virtual_base_addr, 0xd0000000)
                0x30000000                PROVIDE (__pic32_init_sqi_kseg2_physical_base_addr, 0x30000000)
                0x0000001f                PROVIDE (__pic32_init_sqi_kseg2_entrylo0_bitset, 0x1f)
                0xd0000000                __pic32_tlb_0_entryhi = __pic32_init_sqi_kseg2_virtual_base_addr
                0x00c0001f                __pic32_tlb_0_entrylo0 = ((__pic32_init_sqi_kseg2_physical_base_addr >> 0x6) | __pic32_init_sqi_kseg2_entrylo0_bitset)
                0x00c4001f                __pic32_tlb_0_entrylo1 = (__pic32_tlb_0_entrylo0 | ((__pic32_init_sqi_kseg2_physical_base_addr + 0x1000000) >> 0x6))
                0xd2000000                __pic32_tlb_1_entryhi = (__pic32_init_sqi_kseg2_virtual_base_addr + 0x2000000)
                0x00c8001f                __pic32_tlb_1_entrylo0 = (((__pic32_init_sqi_kseg2_physical_base_addr + 0x2000000) >> 0x6) | __pic32_init_sqi_kseg2_entrylo0_bitset)
                0x00cc001f                __pic32_tlb_1_entrylo1 = (__pic32_tlb_1_entrylo0 | 0x40000)
                0xf0000000                PROVIDE (__pic32_init_sqi_kseg3_virtual_base_addr, 0xf0000000)
                0x30000000                PROVIDE (__pic32_init_sqi_kseg3_physical_base_addr, 0x30000000)
                0x00000017                PROVIDE (__pic32_init_sqi_kseg3_entrylo0_bitset, 0x17)
                0xf0000000                __pic32_tlb_2_entryhi = __pic32_init_sqi_kseg3_virtual_base_addr
                0x00c00017                __pic32_tlb_2_entrylo0 = ((__pic32_init_sqi_kseg3_physical_base_addr >> 0x6) | __pic32_init_sqi_kseg3_entrylo0_bitset)
                0x00c40017                __pic32_tlb_2_entrylo1 = (__pic32_tlb_2_entrylo0 | ((__pic32_init_sqi_kseg3_physical_base_addr + 0x1000000) >> 0x6))
                0xf2000000                __pic32_tlb_3_entryhi = (__pic32_init_sqi_kseg3_virtual_base_addr + 0x2000000)
                0x00c80017                __pic32_tlb_3_entrylo0 = (((__pic32_init_sqi_kseg3_physical_base_addr + 0x2000000) >> 0x6) | __pic32_init_sqi_kseg3_entrylo0_bitset)
                0x00cc0017                __pic32_tlb_3_entrylo1 = (__pic32_tlb_3_entrylo0 | 0x40000)
                0xc0000000                PROVIDE (__pic32_init_ebi_kseg2_virtual_base_addr, 0xc0000000)
                0x20000000                PROVIDE (__pic32_init_ebi_kseg2_physical_base_addr, 0x20000000)
                0x0000001f                PROVIDE (__pic32_init_ebi_kseg2_entrylo0_bitset, 0x1f)
                0xc0000000                __pic32_tlb_4_entryhi = __pic32_init_ebi_kseg2_virtual_base_addr
                0x0080001f                __pic32_tlb_4_entrylo0 = ((__pic32_init_ebi_kseg2_physical_base_addr >> 0x6) | __pic32_init_ebi_kseg2_entrylo0_bitset)
                0x0084001f                __pic32_tlb_4_entrylo1 = (__pic32_tlb_4_entrylo0 | ((__pic32_init_ebi_kseg2_physical_base_addr + 0x1000000) >> 0x6))
                0xc2000000                __pic32_tlb_5_entryhi = (__pic32_init_ebi_kseg2_virtual_base_addr + 0x2000000)
                0x0088001f                __pic32_tlb_5_entrylo0 = (((__pic32_init_ebi_kseg2_physical_base_addr + 0x2000000) >> 0x6) | __pic32_init_ebi_kseg2_entrylo0_bitset)
                0x008c001f                __pic32_tlb_5_entrylo1 = (__pic32_tlb_5_entrylo0 | 0x40000)
                0xe0000000                PROVIDE (__pic32_init_ebi_kseg3_virtual_base_addr, 0xe0000000)
                0x20000000                PROVIDE (__pic32_init_ebi_kseg3_physical_base_addr, 0x20000000)
                0x00000017                PROVIDE (__pic32_init_ebi_kseg3_entrylo0_bitset, 0x17)
                0xe0000000                __pic32_tlb_6_entryhi = __pic32_init_ebi_kseg3_virtual_base_addr
                0x00800017                __pic32_tlb_6_entrylo0 = ((__pic32_init_ebi_kseg3_physical_base_addr >> 0x6) | __pic32_init_ebi_kseg3_entrylo0_bitset)
                0x00840017                __pic32_tlb_6_entrylo1 = (__pic32_tlb_6_entrylo0 | ((__pic32_init_ebi_kseg3_physical_base_addr + 0x1000000) >> 0x6))
                0xe2000000                __pic32_tlb_7_entryhi = (__pic32_init_ebi_kseg3_virtual_base_addr + 0x2000000)
                0x00880017                __pic32_tlb_7_entrylo0 = (((__pic32_init_ebi_kseg3_physical_base_addr + 0x2000000) >> 0x6) | __pic32_init_ebi_kseg3_entrylo0_bitset)
                0x008c0017                __pic32_tlb_7_entrylo1 = (__pic32_tlb_7_entrylo0 | 0x40000)

.tlb_init_values
                0xbfc0064c       0x60
                0xbfc0064c                . = ALIGN (0x4)
                0xbfc0064c                __pic32_tlb_init_values_begin = ABSOLUTE (.)
                0xbfc0064c        0x4 LONG 0xd0000000 __pic32_tlb_0_entryhi
                0xbfc00650        0x4 LONG 0xc0001f __pic32_tlb_0_entrylo0
                0xbfc00654        0x4 LONG 0xc4001f __pic32_tlb_0_entrylo1
                0xbfc00658        0x4 LONG 0xd2000000 __pic32_tlb_1_entryhi
                0xbfc0065c        0x4 LONG 0xc8001f __pic32_tlb_1_entrylo0
                0xbfc00660        0x4 LONG 0xcc001f __pic32_tlb_1_entrylo1
                0xbfc00664        0x4 LONG 0xf0000000 __pic32_tlb_2_entryhi
                0xbfc00668        0x4 LONG 0xc00017 __pic32_tlb_2_entrylo0
                0xbfc0066c        0x4 LONG 0xc40017 __pic32_tlb_2_entrylo1
                0xbfc00670        0x4 LONG 0xf2000000 __pic32_tlb_3_entryhi
                0xbfc00674        0x4 LONG 0xc80017 __pic32_tlb_3_entrylo0
                0xbfc00678        0x4 LONG 0xcc0017 __pic32_tlb_3_entrylo1
                0xbfc0067c        0x4 LONG 0xc0000000 __pic32_tlb_4_entryhi
                0xbfc00680        0x4 LONG 0x80001f __pic32_tlb_4_entrylo0
                0xbfc00684        0x4 LONG 0x84001f __pic32_tlb_4_entrylo1
                0xbfc00688        0x4 LONG 0xc2000000 __pic32_tlb_5_entryhi
                0xbfc0068c        0x4 LONG 0x88001f __pic32_tlb_5_entrylo0
                0xbfc00690        0x4 LONG 0x8c001f __pic32_tlb_5_entrylo1
                0xbfc00694        0x4 LONG 0xe0000000 __pic32_tlb_6_entryhi
                0xbfc00698        0x4 LONG 0x800017 __pic32_tlb_6_entrylo0
                0xbfc0069c        0x4 LONG 0x840017 __pic32_tlb_6_entrylo1
                0xbfc006a0        0x4 LONG 0xe2000000 __pic32_tlb_7_entryhi
                0xbfc006a4        0x4 LONG 0x880017 __pic32_tlb_7_entrylo0
                0xbfc006a8        0x4 LONG 0x8c0017 __pic32_tlb_7_entrylo1
                0xbfc006ac                __pic32_tlb_init_values_end = ABSOLUTE (.)
                0x00000008                __pic32_tlb_init_values_count = 0x8
LOAD c:/program files (x86)/microchip/xc32/v1.40/bin/bin/../../lib/gcc/pic32mx/4.8.3\libgcc.a
START GROUP
LOAD c:/program files (x86)/microchip/xc32/v1.40/bin/bin/../../lib/gcc/pic32mx/4.8.3/../../../../pic32mx/lib\libpic32.a
LOAD c:/program files (x86)/microchip/xc32/v1.40/bin/bin/../../lib/gcc/pic32mx/4.8.3/../../../../pic32mx/lib\libdebug.a
LOAD c:/program files (x86)/microchip/xc32/v1.40/bin/bin/../../lib/gcc/pic32mx/4.8.3/../../../../pic32mx/lib\libpic32.a
LOAD c:/program files (x86)/microchip/xc32/v1.40/bin/bin/../../lib/gcc/pic32mx/4.8.3/../../../../pic32mx/lib\libm.a
LOAD c:/program files (x86)/microchip/xc32/v1.40/bin/bin/../../lib/gcc/pic32mx/4.8.3/../../../../pic32mx/lib\libe.a
LOAD c:/program files (x86)/microchip/xc32/v1.40/bin/bin/../../lib/gcc/pic32mx/4.8.3/../../../../pic32mx/lib\libdspr2.a
LOAD c:/program files (x86)/microchip/xc32/v1.40/bin/bin/../../lib/gcc/pic32mx/4.8.3/../../../../pic32mx/lib\libdsp.a
LOAD c:/program files (x86)/microchip/xc32/v1.40/bin/bin/../../lib/gcc/pic32mx/4.8.3\libgcc.a
LOAD c:/program files (x86)/microchip/xc32/v1.40/bin/bin/../../lib/gcc/pic32mx/4.8.3/../../../../pic32mx/lib\libc.a
LOAD c:/program files (x86)/microchip/xc32/v1.40/bin/bin/../../lib/gcc/pic32mx/4.8.3/../../../../pic32mx/lib\libpic32.a
END GROUP
LOAD c:/program files (x86)/microchip/xc32/v1.40/bin/bin/../../lib/gcc/pic32mx/4.8.3\libgcc.a
OUTPUT(dist/default/production/Gateway.X.production.elf elf32-tradlittlemips)
LOAD stack
LOAD data_init

.reginfo        0x00000000       0x18
 .reginfo       0x00000000       0x18 c:/program files (x86)/microchip/xc32/v1.40/bin/bin/../../lib/gcc/pic32mx/4.8.3/../../../../pic32mx/lib/./proc/32MZ2048ECH144/crt0_mips32r2.o

.stack          0x8000bfb8      0x400
 .stack         0x8000bfb8      0x400 stack

.__vector_offset_BF8106F4_data
                0xbf8106f4      0x148
 .__vector_offset_BF8106F4_data
                0xbf8106f4      0x148 c:/program files (x86)/microchip/xc32/v1.40/bin/bin/../../lib/gcc/pic32mx/4.8.3/../../../../pic32mx/lib/./proc/32MZ2048ECH144\vector_offset_init.o

.__vector_offset_BF81062C_data
                0xbf81062c       0xc0
 .__vector_offset_BF81062C_data
                0xbf81062c       0xc0 c:/program files (x86)/microchip/xc32/v1.40/bin/bin/../../lib/gcc/pic32mx/4.8.3/../../../../pic32mx/lib/./proc/32MZ2048ECH144\vector_offset_init.o

.__vector_offset_BF810540_data
                0xbf810540       0xb4
 .__vector_offset_BF810540_data
                0xbf810540       0xb4 c:/program files (x86)/microchip/xc32/v1.40/bin/bin/../../lib/gcc/pic32mx/4.8.3/../../../../pic32mx/lib/./proc/32MZ2048ECH144\vector_offset_init.o

.__vector_offset_BF8105F8_data
                0xbf8105f8       0x30
 .__vector_offset_BF8105F8_data
                0xbf8105f8       0x30 c:/program files (x86)/microchip/xc32/v1.40/bin/bin/../../lib/gcc/pic32mx/4.8.3/../../../../pic32mx/lib/./proc/32MZ2048ECH144\vector_offset_init.o

.bss.can_message_buffer0
                0xa0000574      0x400
 .bss.can_message_buffer0
                0xa0000574      0x400 build/default/production/_ext/337818580/drv_can_static.o

.bss            0x80000974      0x2b4
 .bss           0x80000974      0x2b4 build/default/production/_ext/1408260596/tcpip_manager.o

.data           0x80000c30      0x140
 .data          0x80000c30      0x140 build/default/production/_ext/1908841681/drv_ethmac.o

.bss            0x80000d70       0xe4
 .bss           0x80000d70       0x90 build/default/production/_ext/1264926591/sys_tmr.o
 .bss           0x80000e00       0x54 build/default/production/_ext/1408260596/arp.o

.data           0x80000e54       0x4c
 .data          0x80000e54       0x4c build/default/production/_ext/1688732426/system_exceptions.o

.bss            0x80000ea0       0x80
 .bss           0x80000ea0       0x44 c:/program files (x86)/microchip/xc32/v1.40/bin/bin/../../lib/gcc/pic32mx/4.8.3/../../../../pic32mx/lib\libc.a(_iob.o)
                0x80000ea0                _outdone
                0x80000ea4                _sibuf
                0x80000ec4                _sobuf
 .bss           0x80000ee4       0x3c build/default/production/_ext/185269848/drv_tmr.o

.data           0x80000f20       0x24
 .data          0x80000f20       0x24 build/default/production/_ext/1408260596/tcpip_packet.o

.bss            0x80000f44       0xa8
 .bss           0x80000f44       0x24 c:/program files (x86)/microchip/xc32/v1.40/bin/bin/../../lib/gcc/pic32mx/4.8.3/../../../../pic32mx/lib\libpic32.a(sbrk.o)
                0x80000f44                _minbrk
                0x80000f48                _maxbrk
 .bss           0x80000f68       0x20 build/default/production/_ext/1408260596/ipv4.o
 .bss           0x80000f88       0x20 c:/program files (x86)/microchip/xc32/v1.40/bin/bin/../../lib/gcc/pic32mx/4.8.3/../../../../pic32mx/lib\libc.a(malloc.o)
                0x80000f88                __allocs
                0x80000f98                __allocp
                0x80000f9c                __alloct
                0x80000fa0                __allocx
 .bss           0x80000fa8       0x18 build/default/production/_ext/1283840359/sys_random.o
 .bss           0x80000fc0       0x10 build/default/production/_ext/1408260596/icmp.o
 .bss           0x80000fd0       0x10 c:/program files (x86)/microchip/xc32/v1.40/bin/bin/../../lib/gcc/pic32mx/4.8.3/../../../../pic32mx/lib\libc.a(rand.o)
 .bss           0x80000fe0        0xc build/default/production/_ext/1408260596/udp.o

.data           0x80000fec        0xc
 .data          0x80000fec        0xc build/default/production/_ext/1408260596/tcpip_manager.o

.bss.errno      0x80000c28        0x4
 .bss.errno     0x80000c28        0x4 c:/program files (x86)/microchip/xc32/v1.40/bin/bin/../../lib/gcc/pic32mx/4.8.3/../../../../pic32mx/lib\libc.a(errno.o)
                0x80000c28                errno

._debug_exception
                0xbfc00480       0x2c
 ._debug_exception
                0xbfc00480       0x2c c:/program files (x86)/microchip/xc32/v1.40/bin/bin/../../lib/gcc/pic32mx/4.8.3/../../../../pic32mx/lib\debug-exception-return.o
                0xbfc00480                __DbgExecReturn

.text.vfprintf  0x9d000260     0x1c08
 .text.vfprintf
                0x9d000260     0x1c08 c:/program files (x86)/microchip/xc32/v1.40/bin/bin/../../lib/gcc/pic32mx/4.8.3/../../../../pic32mx/lib\libc.a(doprnt.o)
                0x9d000260                vfprintf

.text.TCPIP_TCP_Task
                0x9d001e68     0x1474
 .text.TCPIP_TCP_Task
                0x9d001e68     0x1474 build/default/production/_ext/1408260596/tcp.o
                0x9d001e68                TCPIP_TCP_Task

.text._vfprintf_cdnopsuxX
                0x9d0032dc      0xad0
 .text._vfprintf_cdnopsuxX
                0x9d0032dc      0xad0 c:/program files (x86)/microchip/xc32/v1.40/bin/bin/../../lib/gcc/pic32mx/4.8.3/../../../../pic32mx/lib\libc.a(doprnt_cdnopsuxX.eo)
                0x9d0032dc                _vfprintf_cdnopsuxX
                0x9d0032dc                _vfprintf_cdnopuxX

.text.TCPIP_STACK_Task
                0x9d003dac      0x8b8
 .text.TCPIP_STACK_Task
                0x9d003dac      0x8b8 build/default/production/_ext/1408260596/tcpip_manager.o
                0x9d003dac                TCPIP_STACK_Task

.text._TcpSend  0x9d004664      0x824
 .text._TcpSend
                0x9d004664      0x824 build/default/production/_ext/1408260596/tcp.o

.dinit          0x9d004e88      0x780
 .dinit         0x9d004e88      0x780 data_init

.text.APP_Tasks
                0x9d005608      0x6d0
 .text.APP_Tasks
                0x9d005608      0x6d0 build/default/production/_ext/1360937237/app.o
                0x9d005608                APP_Tasks

.text.TCPIP_ZCLL_Task
                0x9d005cd8      0x600
 .text.TCPIP_ZCLL_Task
                0x9d005cd8      0x600 build/default/production/_ext/1408260596/zero_conf_link_local.o
                0x9d005cd8                TCPIP_ZCLL_Task

.text.DRV_ETHMAC_PIC32MACInitialize
                0x9d0062d8      0x510
 .text.DRV_ETHMAC_PIC32MACInitialize
                0x9d0062d8      0x510 build/default/production/_ext/1908841681/drv_ethmac.o
                0x9d0062d8                DRV_ETHMAC_PIC32MACInitialize

.text.TCPIP_ARP_Task
                0x9d0067e8      0x508
 .text.TCPIP_ARP_Task
                0x9d0067e8      0x508 build/default/production/_ext/1408260596/arp.o
                0x9d0067e8                TCPIP_ARP_Task

.text           0x9d006cf0      0x8bc
 .text          0x9d006cf0      0x464 c:/program files (x86)/microchip/xc32/v1.40/bin/bin/../../lib/gcc/pic32mx/4.8.3\libgcc.a(_umoddi3.o)
                0x9d006cf0                __umoddi3
 .text          0x9d007154      0x458 c:/program files (x86)/microchip/xc32/v1.40/bin/bin/../../lib/gcc/pic32mx/4.8.3\libgcc.a(_udivdi3.o)
                0x9d007154                __udivdi3

.text.APP2_Tasks
                0x9d0075ac      0x3ac
 .text.APP2_Tasks
                0x9d0075ac      0x3ac build/default/production/_ext/1360937237/app2.o
                0x9d0075ac                APP2_Tasks

.text._TCP_Open
                0x9d007958      0x37c
 .text._TCP_Open
                0x9d007958      0x37c build/default/production/_ext/1408260596/tcp.o

.text.APP1_Tasks
                0x9d007cd4      0x378
 .text.APP1_Tasks
                0x9d007cd4      0x378 build/default/production/_ext/1360937237/app1.o
                0x9d007cd4                APP1_Tasks

.text.TCPIP_ANNOUNCE_Task
                0x9d00804c      0x368
 .text.TCPIP_ANNOUNCE_Task
                0x9d00804c      0x368 build/default/production/_ext/1408260596/tcpip_announce.o
                0x9d00804c                TCPIP_ANNOUNCE_Task

.text.TCPIP_NBNS_Task
                0x9d0083b4      0x340
 .text.TCPIP_NBNS_Task
                0x9d0083b4      0x340 build/default/production/_ext/1408260596/nbns.o
                0x9d0083b4                TCPIP_NBNS_Task

.text.TCPIP_ARP_Initialize
                0x9d0086f4      0x334
 .text.TCPIP_ARP_Initialize
                0x9d0086f4      0x334 build/default/production/_ext/1408260596/arp.o
                0x9d0086f4                TCPIP_ARP_Initialize

.text.TCPIP_STACK_BringNetUp
                0x9d008a28      0x308
 .text.TCPIP_STACK_BringNetUp
                0x9d008a28      0x308 build/default/production/_ext/1408260596/tcpip_manager.o

.text.TCPIP_UDP_Task
                0x9d008d30      0x304
 .text.TCPIP_UDP_Task
                0x9d008d30      0x304 build/default/production/_ext/1408260596/udp.o
                0x9d008d30                TCPIP_UDP_Task

.text.SYS_TMR_Tasks
                0x9d009034      0x2f4
 .text.SYS_TMR_Tasks
                0x9d009034      0x2f4 build/default/production/_ext/1264926591/sys_tmr.o
                0x9d009034                SYS_TMR_Tasks

.text._DRV_TMR_ClockSourceSet
                0x9d009328      0x2ec
 .text._DRV_TMR_ClockSourceSet
                0x9d009328      0x2ec build/default/production/_ext/185269848/drv_tmr.o

.text.TCPIP_IPV4_PacketTransmit
                0x9d009614      0x2e4
 .text.TCPIP_IPV4_PacketTransmit
                0x9d009614      0x2e4 build/default/production/_ext/1408260596/ipv4.o
                0x9d009614                TCPIP_IPV4_PacketTransmit

.text.DRV_TMR_Initialize
                0x9d0098f8      0x2bc
 .text.DRV_TMR_Initialize
                0x9d0098f8      0x2bc build/default/production/_ext/185269848/drv_tmr.o
                0x9d0098f8                DRV_TMR_Initialize

.text._DRV_PHY_SMITransferDo
                0x9d009bb4      0x298
 .text._DRV_PHY_SMITransferDo
                0x9d009bb4      0x298 build/default/production/_ext/732687875/drv_ethphy.o

.text.TCPIP_TCP_ArrayPutRaw
                0x9d009e4c      0x294
 .text.TCPIP_TCP_ArrayPutRaw
                0x9d009e4c      0x294 build/default/production/_ext/1408260596/tcp.o
                0x9d009e4c                TCPIP_TCP_ArrayPutRaw

.text.TCPIP_STACK_Initialize
                0x9d00a0e0      0x294
 .text.TCPIP_STACK_Initialize
                0x9d00a0e0      0x294 build/default/production/_ext/1408260596/tcpip_manager.o
                0x9d00a0e0                TCPIP_STACK_Initialize

.text.malloc    0x9d00a374      0x288
 .text.malloc   0x9d00a374      0x288 c:/program files (x86)/microchip/xc32/v1.40/bin/bin/../../lib/gcc/pic32mx/4.8.3/../../../../pic32mx/lib\libc.a(malloc.o)
                0x9d00a374                malloc

.text.TCPIP_IPV4_Task
                0x9d00a5fc      0x278
 .text.TCPIP_IPV4_Task
                0x9d00a5fc      0x278 build/default/production/_ext/1408260596/ipv4.o
                0x9d00a5fc                TCPIP_IPV4_Task

.text.fpsubadd  0x9d00a874      0x278
 .text.fpsubadd
                0x9d00a874      0x278 c:/program files (x86)/microchip/xc32/v1.40/bin/bin/../../lib/gcc/pic32mx/4.8.3/../../../../pic32mx/lib\libm.a(fp32subadd.o)
                0x9d00a874                __subsf3
                0x9d00a874                fpsub
                0x9d00a87c                __addsf3
                0x9d00a87c                fpadd

.text.TCPIP_UDP_Flush
                0x9d00aaec      0x270
 .text.TCPIP_UDP_Flush
                0x9d00aaec      0x270 build/default/production/_ext/1408260596/udp.o
                0x9d00aaec                TCPIP_UDP_Flush

.text.TCPIP_ICMP_Task
                0x9d00ad5c      0x26c
 .text.TCPIP_ICMP_Task
                0x9d00ad5c      0x26c build/default/production/_ext/1408260596/icmp.o
                0x9d00ad5c                TCPIP_ICMP_Task

.text.DRV_CAN0_Initialize
                0x9d00afc8      0x25c
 .text.DRV_CAN0_Initialize
                0x9d00afc8      0x25c build/default/production/_ext/337818580/drv_can_static.o
                0x9d00afc8                DRV_CAN0_Initialize

.text           0x9d00b224      0x25c
 .text          0x9d00b224      0x25c build/default/production/_ext/1408260596/tcpip_helper_c32.o
                0x9d00b224                TCPIP_Helper_htonl
                0x9d00b230                TCPIP_Helper_htons
                0x9d00b23c                TCPIP_Helper_htonll
                0x9d00b250                TCPIP_Helper_CalcIPChecksum

.text.DRV_ETHMAC_LibRxBuffersAppend
                0x9d00b480      0x250
 .text.DRV_ETHMAC_LibRxBuffersAppend
                0x9d00b480      0x250 build/default/production/_ext/1908841681/drv_ethmac_lib.o
                0x9d00b480                DRV_ETHMAC_LibRxBuffersAppend

.text.DRV_TMR_CounterFrequencyGet
                0x9d00b6d0      0x250
 .text.DRV_TMR_CounterFrequencyGet
                0x9d00b6d0      0x250 build/default/production/_ext/185269848/drv_tmr.o
                0x9d00b6d0                DRV_TMR_CounterFrequencyGet

.text._DRV_TMR_ClockPrescaleSet
                0x9d00b920      0x248
 .text._DRV_TMR_ClockPrescaleSet
                0x9d00b920      0x248 build/default/production/_ext/185269848/drv_tmr.o

.text.DRV_ETHMAC_PIC32MACPacketRx
                0x9d00bb68      0x244
 .text.DRV_ETHMAC_PIC32MACPacketRx
                0x9d00bb68      0x244 build/default/production/_ext/1908841681/drv_ethmac.o
                0x9d00bb68                DRV_ETHMAC_PIC32MACPacketRx

.text._IntHandlerDrvCANInstance0
                0x9d00bdac      0x240
 .text._IntHandlerDrvCANInstance0
                0x9d00bdac      0x240 build/default/production/_ext/1688732426/system_interrupt.o
                0x9d00bdac                _IntHandlerDrvCANInstance0

.text._TCPIP_HEAP_Free
                0x9d00bfec      0x230
 .text._TCPIP_HEAP_Free
                0x9d00bfec      0x230 build/default/production/_ext/1408260596/tcpip_heap_alloc.o
                0x9d00bfec                _TCPIP_HEAP_Free

.text.fp32div   0x9d00c21c      0x230
 .text.fp32div  0x9d00c21c      0x230 c:/program files (x86)/microchip/xc32/v1.40/bin/bin/../../lib/gcc/pic32mx/4.8.3/../../../../pic32mx/lib\libm.a(fp32div.o)
                0x9d00c21c                fpdiv
                0x9d00c21c                __divsf3

.text._UDPOpen  0x9d00c44c      0x220
 .text._UDPOpen
                0x9d00c44c      0x220 build/default/production/_ext/1408260596/udp.o

.text.scale     0x9d00c66c      0x21c
 .text.scale    0x9d00c66c      0x21c c:/program files (x86)/microchip/xc32/v1.40/bin/bin/../../lib/gcc/pic32mx/4.8.3/../../../../pic32mx/lib\libc.a(doprnt.o)

.text.__floatdisf
                0x9d00c888      0x214
 .text.__floatdisf
                0x9d00c888      0x214 c:/program files (x86)/microchip/xc32/v1.40/bin/bin/../../lib/gcc/pic32mx/4.8.3/../../../../pic32mx/lib\libe.a(_floatdisf.o)
                0x9d00c888                __floatdisf

.text._DRV_ETHPHY_SetupPhaseDetect
                0x9d00ca9c      0x1f0
 .text._DRV_ETHPHY_SetupPhaseDetect
                0x9d00ca9c      0x1f0 build/default/production/_ext/732687875/drv_ethphy.o

.text._LoadNetworkConfig
                0x9d00cc8c      0x1dc
 .text._LoadNetworkConfig
                0x9d00cc8c      0x1dc build/default/production/_ext/1408260596/tcpip_manager.o

.text.DRV_ETHMAC_PIC32MACPacketTx
                0x9d00ce68      0x1d4
 .text.DRV_ETHMAC_PIC32MACPacketTx
                0x9d00ce68      0x1d4 build/default/production/_ext/1908841681/drv_ethmac.o
                0x9d00ce68                DRV_ETHMAC_PIC32MACPacketTx

.text.DRV_ETHMAC_LibRxAcknowledgeBuffer
                0x9d00d03c      0x1cc
 .text.DRV_ETHMAC_LibRxAcknowledgeBuffer
                0x9d00d03c      0x1cc build/default/production/_ext/1908841681/drv_ethmac_lib.o
                0x9d00d03c                DRV_ETHMAC_LibRxAcknowledgeBuffer

.text.TCPIP_Helper_StringToIPAddress
                0x9d00d208      0x1cc
 .text.TCPIP_Helper_StringToIPAddress
                0x9d00d208      0x1cc build/default/production/_ext/1408260596/tcpip_helpers.o
                0x9d00d208                TCPIP_Helper_StringToIPAddress

.text.TCPIP_UDP_Initialize
                0x9d00d3d4      0x1c8
 .text.TCPIP_UDP_Initialize
                0x9d00d3d4      0x1c8 build/default/production/_ext/1408260596/udp.o
                0x9d00d3d4                TCPIP_UDP_Initialize

.text._EthAckPacket
                0x9d00d59c      0x1bc
 .text._EthAckPacket
                0x9d00d59c      0x1bc build/default/production/_ext/1908841681/drv_ethmac_lib.o

.text.fp32mul   0x9d00d758      0x1bc
 .text.fp32mul  0x9d00d758      0x1bc c:/program files (x86)/microchip/xc32/v1.40/bin/bin/../../lib/gcc/pic32mx/4.8.3/../../../../pic32mx/lib\libm.a(fp32mul.o)
                0x9d00d758                __mulsf3
                0x9d00d758                fpmul

.text.DRV_ETHMAC_LibInit
                0x9d00d914      0x1b8
 .text.DRV_ETHMAC_LibInit
                0x9d00d914      0x1b8 build/default/production/_ext/1908841681/drv_ethmac_lib.o
                0x9d00d914                DRV_ETHMAC_LibInit

.text.TCPIP_UDP_ArrayGetRaw
                0x9d00dacc      0x1b0
 .text.TCPIP_UDP_ArrayGetRaw
                0x9d00dacc      0x1b0 build/default/production/_ext/1408260596/udp.o
                0x9d00dacc                TCPIP_UDP_ArrayGetRaw

.text.TCPIP_UDP_OptionsSet
                0x9d00dc7c      0x1ac
 .text.TCPIP_UDP_OptionsSet
                0x9d00dc7c      0x1ac build/default/production/_ext/1408260596/udp.o
                0x9d00dc7c                TCPIP_UDP_OptionsSet

.text._DRV_ETHMAC_AddRxBuffers
                0x9d00de28      0x1a8
 .text._DRV_ETHMAC_AddRxBuffers
                0x9d00de28      0x1a8 build/default/production/_ext/1908841681/drv_ethmac.o

.text.TCPIP_UDP_Deinitialize
                0x9d00dfd0      0x1a8
 .text.TCPIP_UDP_Deinitialize
                0x9d00dfd0      0x1a8 build/default/production/_ext/1408260596/udp.o
                0x9d00dfd0                TCPIP_UDP_Deinitialize

.text._IntHandlerDrvTmrInstance0
                0x9d00e178      0x1a4
 .text._IntHandlerDrvTmrInstance0
                0x9d00e178      0x1a4 build/default/production/_ext/1688732426/system_interrupt.o
                0x9d00e178                _IntHandlerDrvTmrInstance0

.text.fround    0x9d00e31c      0x1a4
 .text.fround   0x9d00e31c      0x1a4 c:/program files (x86)/microchip/xc32/v1.40/bin/bin/../../lib/gcc/pic32mx/4.8.3/../../../../pic32mx/lib\libc.a(doprnt.o)

.text._IntHandler_ETHMAC
                0x9d00e4c0      0x1a0
 .text._IntHandler_ETHMAC
                0x9d00e4c0      0x1a0 build/default/production/_ext/1688732426/system_interrupt.o
                0x9d00e4c0                _IntHandler_ETHMAC

.text.DRV_ETHMAC_LibRxGetPacket
                0x9d00e660      0x19c
 .text.DRV_ETHMAC_LibRxGetPacket
                0x9d00e660      0x19c build/default/production/_ext/1908841681/drv_ethmac_lib.o
                0x9d00e660                DRV_ETHMAC_LibRxGetPacket

.text.DRV_ETHMAC_LibMACOpen
                0x9d00e7fc      0x198
 .text.DRV_ETHMAC_LibMACOpen
                0x9d00e7fc      0x198 build/default/production/_ext/1908841681/drv_ethmac_lib.o
                0x9d00e7fc                DRV_ETHMAC_LibMACOpen

.text._ARPProbeAddress
                0x9d00e994      0x198
 .text._ARPProbeAddress
                0x9d00e994      0x198 build/default/production/_ext/1408260596/arp.o

.text._sbrk_init
                0x9d00eb2c      0x194
 .text._sbrk_init
                0x9d00eb2c      0x194 c:/program files (x86)/microchip/xc32/v1.40/bin/bin/../../lib/gcc/pic32mx/4.8.3/../../../../pic32mx/lib\libpic32.a(sbrk.o)
                0x9d00eb2c                _sbrk_init

.text.DRV_TMR_Alarm16BitRegister
                0x9d00ecc0      0x190
 .text.DRV_TMR_Alarm16BitRegister
                0x9d00ecc0      0x190 build/default/production/_ext/185269848/drv_tmr.o
                0x9d00ecc0                DRV_TMR_Alarm16BitRegister

.text.TCPIP_TCP_ArrayGetRaw
                0x9d00ee50      0x190
 .text.TCPIP_TCP_ArrayGetRaw
                0x9d00ee50      0x190 build/default/production/_ext/1408260596/tcp.o
                0x9d00ee50                TCPIP_TCP_ArrayGetRaw

.text.DRV_EXTPHY_MDIXConfigure
                0x9d00efe0      0x18c
 .text.DRV_EXTPHY_MDIXConfigure
                0x9d00efe0      0x18c build/default/production/_ext/732687875/drv_extphy_smsc8740.o

.text._DRV_TMR_Resume
                0x9d00f16c      0x184
 .text._DRV_TMR_Resume
                0x9d00f16c      0x184 build/default/production/_ext/185269848/drv_tmr.o

.text._DRV_ETHPHY_NegResultPhase_ANAD
                0x9d00f2f0      0x180
 .text._DRV_ETHPHY_NegResultPhase_ANAD
                0x9d00f2f0      0x180 build/default/production/_ext/732687875/drv_ethphy.o

.text._TCPIP_HEAP_Malloc
                0x9d00f470      0x180
 .text._TCPIP_HEAP_Malloc
                0x9d00f470      0x180 build/default/production/_ext/1408260596/tcpip_heap_alloc.o
                0x9d00f470                _TCPIP_HEAP_Malloc

.text.DRV_ETHMAC_PIC32MACEventMaskSet
                0x9d00f5f0      0x17c
 .text.DRV_ETHMAC_PIC32MACEventMaskSet
                0x9d00f5f0      0x17c build/default/production/_ext/1908841681/drv_ethmac.o
                0x9d00f5f0                DRV_ETHMAC_PIC32MACEventMaskSet

.text.DRV_ETHMAC_LibTxSendPacket
                0x9d00f76c      0x17c
 .text.DRV_ETHMAC_LibTxSendPacket
                0x9d00f76c      0x17c build/default/production/_ext/1908841681/drv_ethmac_lib.o
                0x9d00f76c                DRV_ETHMAC_LibTxSendPacket

.text._ZeroconfARPPktNotify
                0x9d00f8e8      0x178
 .text._ZeroconfARPPktNotify
                0x9d00f8e8      0x178 build/default/production/_ext/1408260596/zero_conf_link_local.o

.text._EthAppendBusyList
                0x9d00fa60      0x168
 .text._EthAppendBusyList
                0x9d00fa60      0x168 build/default/production/_ext/1908841681/drv_ethmac_lib.o

.text.DRV_EXTPHY_MIIConfigure
                0x9d00fbc8      0x168
 .text.DRV_EXTPHY_MIIConfigure
                0x9d00fbc8      0x168 build/default/production/_ext/732687875/drv_extphy_smsc8740.o

.text           0x9d00fd30      0x2d0
 .text          0x9d00fd30      0x168 c:/program files (x86)/microchip/xc32/v1.40/bin/bin/../../lib/gcc/pic32mx/4.8.3/../../../../pic32mx/lib\libpic32.a(memcpy.o)
                0x9d00fd30                memcpy
 .text          0x9d00fe98      0x168 c:/program files (x86)/microchip/xc32/v1.40/bin/bin/../../lib/gcc/pic32mx/4.8.3/../../../../pic32mx/lib\libpic32.a(strlen.o)
                0x9d00fe98                strlen

.text._DRV_TMR_Suspend
                0x9d010000      0x164
 .text._DRV_TMR_Suspend
                0x9d010000      0x164 build/default/production/_ext/185269848/drv_tmr.o

.text._UDPv4AllocateSktTxBuffer
                0x9d010164      0x164
 .text._UDPv4AllocateSktTxBuffer
                0x9d010164      0x164 build/default/production/_ext/1408260596/udp.o

.text.TCPIP_IPV4_SelectSourceInterface
                0x9d0102c8      0x164
 .text.TCPIP_IPV4_SelectSourceInterface
                0x9d0102c8      0x164 build/default/production/_ext/1408260596/ipv4.o
                0x9d0102c8                TCPIP_IPV4_SelectSourceInterface

.text._SYS_TMR_ClientCreate
                0x9d01042c      0x160
 .text._SYS_TMR_ClientCreate
                0x9d01042c      0x160 build/default/production/_ext/1264926591/sys_tmr.o

.text._DRV_ETHPHY_SetupPhaseReset
                0x9d01058c      0x15c
 .text._DRV_ETHPHY_SetupPhaseReset
                0x9d01058c      0x15c build/default/production/_ext/732687875/drv_ethphy.o

.text._ARPSendIfPkt
                0x9d0106e8      0x15c
 .text._ARPSendIfPkt
                0x9d0106e8      0x15c build/default/production/_ext/1408260596/arp.o

.text._MACDeinit
                0x9d010844      0x158
 .text._MACDeinit
                0x9d010844      0x158 build/default/production/_ext/1908841681/drv_ethmac.o

.rodata         0x9d01099c      0x154
 .rodata        0x9d01099c      0x154 build/default/production/_ext/1688732426/system_init.o
                0x9d01099c                drvTmr0InitData
                0x9d0109b8                sysTmrInitData
                0x9d0109c0                tcpipARPInitData
                0x9d0109e8                tcpipUDPInitData
                0x9d0109e8                tcpipAnnounceInitData
                0x9d0109f0                tcpipTCPInitData
                0x9d0109f8                tcpipMACPIC32INTInitData
                0x9d0109f8                tcpipNBNSInitData
                0x9d010a1c                tcpipZCLLInitData
                0x9d010a6c                TCPIP_HOSTS_CONFIGURATION
                0x9d010aa4                TCPIP_STACK_MODULE_CONFIG_TBL
                0x9d010aec                sysDevconInit

.text._TcpDisconnect
                0x9d010af0      0x148
 .text._TcpDisconnect
                0x9d010af0      0x148 build/default/production/_ext/1408260596/tcp.o

.text._TcpCloseSocket
                0x9d010c38      0x148
 .text._TcpCloseSocket
                0x9d010c38      0x148 build/default/production/_ext/1408260596/tcp.o

.text.fputc     0x9d010d80      0x144
 .text.fputc    0x9d010d80      0x144 c:/program files (x86)/microchip/xc32/v1.40/bin/bin/../../lib/gcc/pic32mx/4.8.3/../../../../pic32mx/lib\libc.a(_fputc_simple.o)
                0x9d010d80                fputc

.text.TCPIP_UDP_OpenServerSkt
                0x9d010ec4      0x140
 .text.TCPIP_UDP_OpenServerSkt
                0x9d010ec4      0x140 build/default/production/_ext/1408260596/udp.o
                0x9d010ec4                TCPIP_UDP_OpenServerSkt

.text._DRV_ETHPHY_SetupPhaseIdle
                0x9d011004      0x13c
 .text._DRV_ETHPHY_SetupPhaseIdle
                0x9d011004      0x13c build/default/production/_ext/732687875/drv_ethphy.o

.text.DRV_ETHMAC_PIC32MACTasks
                0x9d011140      0x134
 .text.DRV_ETHMAC_PIC32MACTasks
                0x9d011140      0x134 build/default/production/_ext/1908841681/drv_ethmac.o
                0x9d011140                DRV_ETHMAC_PIC32MACTasks

.rodata         0x9d011274      0x134
 .rodata        0x9d011274      0x134 build/default/production/_ext/732687875/drv_ethphy.o
                0x9d011310                DRV_ETHPHY_OBJECT_BASE_Default

.text._UDPv4TxAckFnc
                0x9d0113a8      0x130
 .text._UDPv4TxAckFnc
                0x9d0113a8      0x130 build/default/production/_ext/1408260596/udp.o

.text.DRV_ETHMAC_LibDescriptorsPoolAdd
                0x9d0114d8      0x12c
 .text.DRV_ETHMAC_LibDescriptorsPoolAdd
                0x9d0114d8      0x12c build/default/production/_ext/1908841681/drv_ethmac_lib.o
                0x9d0114d8                DRV_ETHMAC_LibDescriptorsPoolAdd

.text._flsbuf   0x9d011604      0x12c
 .text._flsbuf  0x9d011604      0x12c c:/program files (x86)/microchip/xc32/v1.40/bin/bin/../../lib/gcc/pic32mx/4.8.3/../../../../pic32mx/lib\libc.a(_flsbuf_simple.o)
                0x9d011604                _flsbuf

.text.SYS_Initialize
                0x9d011730      0x128
 .text.SYS_Initialize
                0x9d011730      0x128 build/default/production/_ext/1688732426/system_init.o
                0x9d011730                SYS_Initialize

.text._ARPDeleteResources
                0x9d011858      0x128
 .text._ARPDeleteResources
                0x9d011858      0x128 build/default/production/_ext/1408260596/arp.o

.text.TCPIP_IPV4_ArpHandler
                0x9d011980      0x128
 .text.TCPIP_IPV4_ArpHandler
                0x9d011980      0x128 build/default/production/_ext/1408260596/ipv4.o

.text._OAHashFindBkt
                0x9d011aa8      0x124
 .text._OAHashFindBkt
                0x9d011aa8      0x124 build/default/production/_ext/1408260596/oahash.o

.text.TCPIP_Helper_StringToMACAddress
                0x9d011bcc      0x124
 .text.TCPIP_Helper_StringToMACAddress
                0x9d011bcc      0x124 build/default/production/_ext/1408260596/tcpip_helpers.o
                0x9d011bcc                TCPIP_Helper_StringToMACAddress

.text._TCPIP_PKT_FlightLog
                0x9d011cf0      0x124
 .text._TCPIP_PKT_FlightLog
                0x9d011cf0      0x124 build/default/production/_ext/1408260596/tcpip_packet.o
                0x9d011cf0                _TCPIP_PKT_FlightLog

.text.DRV_ETHMAC_Tasks_ISR
                0x9d011e14      0x120
 .text.DRV_ETHMAC_Tasks_ISR
                0x9d011e14      0x120 build/default/production/_ext/1908841681/drv_ethmac.o
                0x9d011e14                DRV_ETHMAC_Tasks_ISR

.text.TCPIP_Helper_PacketCopy
                0x9d011f34      0x120
 .text.TCPIP_Helper_PacketCopy
                0x9d011f34      0x120 build/default/production/_ext/1408260596/tcpip_helpers.o
                0x9d011f34                TCPIP_Helper_PacketCopy

.text           0x9d012054      0x120
 .text          0x9d012054      0x120 c:/program files (x86)/microchip/xc32/v1.40/bin/bin/../../lib/gcc/pic32mx/4.8.3/../../../../pic32mx/lib\libpic32.a(strcmp.o)
                0x9d012054                strcmp

.text.SYS_CLK_Initialize
                0x9d012174      0x11c
 .text.SYS_CLK_Initialize
                0x9d012174      0x11c build/default/production/_ext/639803181/sys_clk_static.o
                0x9d012174                SYS_CLK_Initialize

.text.SYS_PORTS_Initialize
                0x9d012290      0x11c
 .text.SYS_PORTS_Initialize
                0x9d012290      0x11c build/default/production/_ext/822048611/sys_ports_static.o
                0x9d012290                SYS_PORTS_Initialize

.text.DRV_ETHMAC_PIC32MACRxFilterHashTableEntrySet
                0x9d0123ac      0x11c
 .text.DRV_ETHMAC_PIC32MACRxFilterHashTableEntrySet
                0x9d0123ac      0x11c build/default/production/_ext/1908841681/drv_ethmac.o
                0x9d0123ac                DRV_ETHMAC_PIC32MACRxFilterHashTableEntrySet

.text._GetMaxSegSizeOption
                0x9d0124c8      0x11c
 .text._GetMaxSegSizeOption
                0x9d0124c8      0x11c build/default/production/_ext/1408260596/tcp.o

.text.TCPIP_ARP_IsResolved
                0x9d0125e4      0x11c
 .text.TCPIP_ARP_IsResolved
                0x9d0125e4      0x11c build/default/production/_ext/1408260596/arp.o
                0x9d0125e4                TCPIP_ARP_IsResolved

.text._MacRxPacketAck
                0x9d012700      0x118
 .text._MacRxPacketAck
                0x9d012700      0x118 build/default/production/_ext/1908841681/drv_ethmac.o

.text.TCPIP_Helper_PacketChecksum
                0x9d012818      0x118
 .text.TCPIP_Helper_PacketChecksum
                0x9d012818      0x118 build/default/production/_ext/1408260596/tcpip_helpers.o
                0x9d012818                TCPIP_Helper_PacketChecksum

.text.DRV_ETHMAC_PIC32MACStatisticsGet
                0x9d012930      0x114
 .text.DRV_ETHMAC_PIC32MACStatisticsGet
                0x9d012930      0x114 build/default/production/_ext/1908841681/drv_ethmac.o
                0x9d012930                DRV_ETHMAC_PIC32MACStatisticsGet

.text._DRV_ETHPHY_SetupPhaseNegotiate_SubPhase3
                0x9d012a44      0x114
 .text._DRV_ETHPHY_SetupPhaseNegotiate_SubPhase3
                0x9d012a44      0x114 build/default/production/_ext/732687875/drv_ethphy.o

.text.DRV_ETHMAC_LibClose
                0x9d012b58      0x110
 .text.DRV_ETHMAC_LibClose
                0x9d012b58      0x110 build/default/production/_ext/1908841681/drv_ethmac_lib.o
                0x9d012b58                DRV_ETHMAC_LibClose

.text.TCPIP_TCP_Initialize
                0x9d012c68      0x10c
 .text.TCPIP_TCP_Initialize
                0x9d012c68      0x10c build/default/production/_ext/1408260596/tcp.o
                0x9d012c68                TCPIP_TCP_Initialize

.text.TCPIP_ANNOUNCE_Init
                0x9d012d74      0x10c
 .text.TCPIP_ANNOUNCE_Init
                0x9d012d74      0x10c build/default/production/_ext/1408260596/tcpip_announce.o
                0x9d012d74                TCPIP_ANNOUNCE_Init

.text.TCPIP_STACK_Deinitialize
                0x9d012e80      0x10c
 .text.TCPIP_STACK_Deinitialize
                0x9d012e80      0x10c build/default/production/_ext/1408260596/tcpip_manager.o
                0x9d012e80                TCPIP_STACK_Deinitialize

.rodata         0x9d012f8c      0x108
 .rodata        0x9d012f8c      0x108 build/default/production/_ext/1408260596/tcpip_packet.o

.text._Tcpv4TxAckFnc
                0x9d013094      0x104
 .text._Tcpv4TxAckFnc
                0x9d013094      0x104 build/default/production/_ext/1408260596/tcp.o

.rodata         0x9d013198      0x104
 .rodata        0x9d013198      0x104 c:/program files (x86)/microchip/xc32/v1.40/bin/bin/../../lib/gcc/pic32mx/4.8.3/../../../../pic32mx/lib\libc.a(ctype.o)
                0x9d013198                _ctype

.text.changeFormat
                0x9d01329c       0xfc
 .text.changeFormat
                0x9d01329c       0xfc build/default/production/_ext/1360937237/app.o
                0x9d01329c                changeFormat

.text._TcpSocketSetIdleState
                0x9d013398       0xfc
 .text._TcpSocketSetIdleState
                0x9d013398       0xfc build/default/production/_ext/1408260596/tcp.o

.text.TCPIP_TCP_ServerOpen
                0x9d013494       0xf8
 .text.TCPIP_TCP_ServerOpen
                0x9d013494       0xf8 build/default/production/_ext/1408260596/tcp.o
                0x9d013494                TCPIP_TCP_ServerOpen

.text._DRV_ETHPHY_NegCompletePhaseAN_Restart
                0x9d01358c       0xf4
 .text._DRV_ETHPHY_NegCompletePhaseAN_Restart
                0x9d01358c       0xf4 build/default/production/_ext/732687875/drv_ethphy.o

.text.SYS_DEVCON_PerformanceConfig
                0x9d013680       0xf4
 .text.SYS_DEVCON_PerformanceConfig
                0x9d013680       0xf4 build/default/production/_ext/1271179505/sys_devcon_pic32mz.o
                0x9d013680                SYS_DEVCON_PerformanceConfig

.text._DRV_ETHPHY_ResetPhaseRead
                0x9d000010       0xf0
 .text._DRV_ETHPHY_ResetPhaseRead
                0x9d000010       0xf0 build/default/production/_ext/732687875/drv_ethphy.o

.text._DRV_ETHPHY_SetupPhaseNegotiate_SubPhase0
                0x9d013774       0xec
 .text._DRV_ETHPHY_SetupPhaseNegotiate_SubPhase0
                0x9d013774       0xec build/default/production/_ext/732687875/drv_ethphy.o

.text.DRV_ETHMAC_PIC32MACProcess
                0x9d013860       0xe8
 .text.DRV_ETHMAC_PIC32MACProcess
                0x9d013860       0xe8 build/default/production/_ext/1908841681/drv_ethmac.o
                0x9d013860                DRV_ETHMAC_PIC32MACProcess

.text._SYS_TMR_ClientParamSet
                0x9d013948       0xe8
 .text._SYS_TMR_ClientParamSet
                0x9d013948       0xe8 build/default/production/_ext/1264926591/sys_tmr.o

.text.TCPIP_HEAP_Create
                0x9d013a30       0xe8
 .text.TCPIP_HEAP_Create
                0x9d013a30       0xe8 build/default/production/_ext/1408260596/tcpip_heap_alloc.o
                0x9d013a30                TCPIP_HEAP_Create

.text._TCPIP_StackSyncFunction
                0x9d013b18       0xe8
 .text._TCPIP_StackSyncFunction
                0x9d013b18       0xe8 build/default/production/_ext/1408260596/tcpip_manager.o

.rodata         0x9d013c00       0xe8
 .rodata        0x9d013c00       0xe8 c:/program files (x86)/microchip/xc32/v1.40/bin/bin/../../lib/gcc/pic32mx/4.8.3/../../../../pic32mx/lib\libc.a(doprnt.o)

.text.TCPIP_NBNS_Initialize
                0x9d013ce8       0xe4
 .text.TCPIP_NBNS_Initialize
                0x9d013ce8       0xe4 build/default/production/_ext/1408260596/nbns.o
                0x9d013ce8                TCPIP_NBNS_Initialize

.rodata         0x9d013dcc       0xe0
 .rodata        0x9d013dcc       0xe0 build/default/production/_ext/1908841681/drv_ethmac.o
                0x9d013dd8                DRV_ETHMAC_PIC32MACObject

.text.DRV_ETHPHY_Setup
                0x9d013eac       0xe0
 .text.DRV_ETHPHY_Setup
                0x9d013eac       0xe0 build/default/production/_ext/732687875/drv_ethphy.o
                0x9d013eac                DRV_ETHPHY_Setup

.text.TCPIP_OAHASH_EntryLookup
                0x9d013f8c       0xe0
 .text.TCPIP_OAHASH_EntryLookup
                0x9d013f8c       0xe0 build/default/production/_ext/1408260596/oahash.o
                0x9d013f8c                TCPIP_OAHASH_EntryLookup

.rodata         0x9d01406c       0xdc
 .rodata        0x9d01406c       0xdc build/default/production/_ext/1688732426/system_exceptions.o

.text.DRV_ETHPHY_SMIClockSet
                0x9d014148       0xdc
 .text.DRV_ETHPHY_SMIClockSet
                0x9d014148       0xdc build/default/production/_ext/732687875/drv_ethphy.o
                0x9d014148                DRV_ETHPHY_SMIClockSet

.text._TCPIP_PKT_PacketAlloc
                0x9d014224       0xdc
 .text._TCPIP_PKT_PacketAlloc
                0x9d014224       0xdc build/default/production/_ext/1408260596/tcpip_packet.o
                0x9d014224                _TCPIP_PKT_PacketAlloc

.text.general_exception
                0x9d014300       0xdc
 .text.general_exception
                0x9d014300       0xdc c:/program files (x86)/microchip/xc32/v1.40/bin/bin/../../lib/gcc/pic32mx/4.8.3/../../../../pic32mx/lib\libpic32.a(general-exception.o)
                0x9d014300                _general_exception_context

.text._ARPUpdateEntry
                0x9d0143dc       0xd8
 .text._ARPUpdateEntry
                0x9d0143dc       0xd8 build/default/production/_ext/1408260596/arp.o

.text._cache_err_exception_context
                0x9d0144b4       0xd8
 .text._cache_err_exception_context
                0x9d0144b4       0xd8 c:/program files (x86)/microchip/xc32/v1.40/bin/bin/../../lib/gcc/pic32mx/4.8.3/../../../../pic32mx/lib\libpic32.a(cache-err-exception.o)
                0x9d0144b4                _cache_err_exception_context

.text.simple_tlb_refill_context
                0x9d01458c       0xd8
 .text.simple_tlb_refill_context
                0x9d01458c       0xd8 c:/program files (x86)/microchip/xc32/v1.40/bin/bin/../../lib/gcc/pic32mx/4.8.3/../../../../pic32mx/lib\libpic32.a(simple-tlb-refill-exception.o)
                0x9d01458c                _simple_tlb_refill_exception_context

.text._DRV_ETHPHY_NegResultPhase_BMSTAT
                0x9d014664       0xd4
 .text._DRV_ETHPHY_NegResultPhase_BMSTAT
                0x9d014664       0xd4 build/default/production/_ext/732687875/drv_ethphy.o

.text.TCPIP_STACK_BringNetDown
                0x9d014738       0xd4
 .text.TCPIP_STACK_BringNetDown
                0x9d014738       0xd4 build/default/production/_ext/1408260596/tcpip_manager.o

.text._mon_putc
                0x9d01480c       0xd4
 .text._mon_putc
                0x9d01480c       0xd4 c:/program files (x86)/microchip/xc32/v1.40/bin/bin/../../lib/gcc/pic32mx/4.8.3/../../../../pic32mx/lib\libpic32.a(_mon_putc.o)
                0x9d01480c                _mon_putc

.text._MacTxPendingPackets
                0x9d0148e0       0xd0
 .text._MacTxPendingPackets
                0x9d0148e0       0xd0 build/default/production/_ext/1908841681/drv_ethmac.o

.rodata         0x9d0149b0       0xd0
 .rodata        0x9d0149b0       0xd0 c:/program files (x86)/microchip/xc32/v1.40/bin/bin/../../lib/gcc/pic32mx/4.8.3/../../../../pic32mx/lib\libc.a(doprnt_cdnopsuxX.eo)

.text.GenerateSeed
                0x9d014a80       0xcc
 .text.GenerateSeed
                0x9d014a80       0xcc build/default/production/_ext/1886890887/random.o
                0x9d014a80                GenerateSeed

.text._DRV_ETHMAC_LinkStateNegResult
                0x9d014b4c       0xcc
 .text._DRV_ETHMAC_LinkStateNegResult
                0x9d014b4c       0xcc build/default/production/_ext/1908841681/drv_ethmac.o

.text.TCPIP_UDP_RemoteBind
                0x9d014c18       0xcc
 .text.TCPIP_UDP_RemoteBind
                0x9d014c18       0xcc build/default/production/_ext/1408260596/udp.o
                0x9d014c18                TCPIP_UDP_RemoteBind

.text.DRV_TMR_Tasks_ISR
                0x9d014ce4       0xc8
 .text.DRV_TMR_Tasks_ISR
                0x9d014ce4       0xc8 build/default/production/_ext/185269848/drv_tmr.o
                0x9d014ce4                DRV_TMR_Tasks_ISR

.text._UDPsetPacketInfo
                0x9d014dac       0xc8
 .text._UDPsetPacketInfo
                0x9d014dac       0xc8 build/default/production/_ext/1408260596/udp.o

.text.TCPIP_STACK_NetDown
                0x9d014e74       0xc8
 .text.TCPIP_STACK_NetDown
                0x9d014e74       0xc8 build/default/production/_ext/1408260596/tcpip_manager.o
                0x9d014e74                TCPIP_STACK_NetDown

.text._sbrk     0x9d014f3c       0xc8
 .text._sbrk    0x9d014f3c       0xc8 c:/program files (x86)/microchip/xc32/v1.40/bin/bin/../../lib/gcc/pic32mx/4.8.3/../../../../pic32mx/lib\libpic32.a(sbrk.o)
                0x9d014f3c                _sbrk

.text._TCPIPStackModuleRxPurge
                0x9d015004       0xc4
 .text._TCPIPStackModuleRxPurge
                0x9d015004       0xc4 build/default/production/_ext/1408260596/tcpip_manager.o
                0x9d015004                _TCPIPStackModuleRxPurge

.text.TCPIP_UDP_ArrayPutRaw
                0x9d0150c8       0xc0
 .text.TCPIP_UDP_ArrayPutRaw
                0x9d0150c8       0xc0 build/default/production/_ext/1408260596/udp.o
                0x9d0150c8                TCPIP_UDP_ArrayPutRaw

.text.TCPIP_OAHASH_EntryLookupOrInsert
                0x9d015188       0xc0
 .text.TCPIP_OAHASH_EntryLookupOrInsert
                0x9d015188       0xc0 build/default/production/_ext/1408260596/oahash.o
                0x9d015188                TCPIP_OAHASH_EntryLookupOrInsert

.text.SYS_TMR_Initialize
                0x9d015248       0xbc
 .text.SYS_TMR_Initialize
                0x9d015248       0xbc build/default/production/_ext/1264926591/sys_tmr.o
                0x9d015248                SYS_TMR_Initialize

.text.TCPIP_PKT_DataSegmentGet
                0x9d015304       0xbc
 .text.TCPIP_PKT_DataSegmentGet
                0x9d015304       0xbc build/default/production/_ext/1408260596/tcpip_packet.o
                0x9d015304                TCPIP_PKT_DataSegmentGet

.text.TCPIP_IPV4_DeInitialize
                0x9d0153c0       0xbc
 .text.TCPIP_IPV4_DeInitialize
                0x9d0153c0       0xbc build/default/production/_ext/1408260596/ipv4.o
                0x9d0153c0                TCPIP_IPV4_DeInitialize

.tlb.__pic32_tlb_init_ebi_sqi
                0x9d01547c       0xbc
 .tlb.__pic32_tlb_init_ebi_sqi
                0x9d01547c       0xbc c:/program files (x86)/microchip/xc32/v1.40/bin/bin/../../lib/gcc/pic32mx/4.8.3/../../../../pic32mx/lib\libpic32.a(pic32_init_tlb_ebi_sqi.o)
                0x9d01547c                __pic32_tlb_init_ebi_sqi

.text._EthTxSchedList
                0x9d015538       0xb8
 .text._EthTxSchedList
                0x9d015538       0xb8 build/default/production/_ext/1908841681/drv_ethmac_lib.o

.text.TCPIP_UDP_BcastIPV4AddressSet
                0x9d0155f0       0xb8
 .text.TCPIP_UDP_BcastIPV4AddressSet
                0x9d0155f0       0xb8 build/default/production/_ext/1408260596/udp.o
                0x9d0155f0                TCPIP_UDP_BcastIPV4AddressSet

.text.DRV_CAN0_Receive
                0x9d0156a8       0xb4
 .text.DRV_CAN0_Receive
                0x9d0156a8       0xb4 build/default/production/_ext/337818580/drv_can_static.o
                0x9d0156a8                DRV_CAN0_Receive

.text.DRV_ETHMAC_PIC32MACEventAcknowledge
                0x9d01575c       0xb4
 .text.DRV_ETHMAC_PIC32MACEventAcknowledge
                0x9d01575c       0xb4 build/default/production/_ext/1908841681/drv_ethmac.o
                0x9d01575c                DRV_ETHMAC_PIC32MACEventAcknowledge

.text._EthTxSchedBuffer
                0x9d015810       0xb4
 .text._EthTxSchedBuffer
                0x9d015810       0xb4 build/default/production/_ext/1908841681/drv_ethmac_lib.o

.text._ARPNotifyClients
                0x9d0158c4       0xb4
 .text._ARPNotifyClients
                0x9d0158c4       0xb4 build/default/production/_ext/1408260596/arp.o

.text._DRV_ETHPHY_ResetPhaseWrite
                0x9d015978       0xb0
 .text._DRV_ETHPHY_ResetPhaseWrite
                0x9d015978       0xb0 build/default/production/_ext/732687875/drv_ethphy.o

.text.DRV_ETHPHY_VendorSMIWriteStart
                0x9d015a28       0xb0
 .text.DRV_ETHPHY_VendorSMIWriteStart
                0x9d015a28       0xb0 build/default/production/_ext/732687875/drv_ethphy.o
                0x9d015a28                DRV_ETHPHY_VendorSMIWriteStart

.text.TCPIP_ZCLL_Initialize
                0x9d015ad8       0xb0
 .text.TCPIP_ZCLL_Initialize
                0x9d015ad8       0xb0 build/default/production/_ext/1408260596/zero_conf_link_local.o
                0x9d015ad8                TCPIP_ZCLL_Initialize

.text.TCPIP_STACK_AddressServiceEvent
                0x9d015b88       0xb0
 .text.TCPIP_STACK_AddressServiceEvent
                0x9d015b88       0xb0 build/default/production/_ext/1408260596/tcpip_manager.o
                0x9d015b88                TCPIP_STACK_AddressServiceEvent

.text.TCPIP_IPV4_PacketFormatTx
                0x9d015c38       0xb0
 .text.TCPIP_IPV4_PacketFormatTx
                0x9d015c38       0xb0 build/default/production/_ext/1408260596/ipv4.o
                0x9d015c38                TCPIP_IPV4_PacketFormatTx

.text._DRV_ETHMAC_LinkStateWaitLinkUp
                0x9d015ce8       0xac
 .text._DRV_ETHMAC_LinkStateWaitLinkUp
                0x9d015ce8       0xac build/default/production/_ext/1908841681/drv_ethmac.o

.text._DRV_ETHPHY_NegCompletePhaseRead2
                0x9d015d94       0xac
 .text._DRV_ETHPHY_NegCompletePhaseRead2
                0x9d015d94       0xac build/default/production/_ext/732687875/drv_ethphy.o

.text.DRV_ETHPHY_VendorSMIReadStart
                0x9d015e40       0xac
 .text.DRV_ETHPHY_VendorSMIReadStart
                0x9d015e40       0xac build/default/production/_ext/732687875/drv_ethphy.o
                0x9d015e40                DRV_ETHPHY_VendorSMIReadStart

.text.TCPIP_TCP_Deinitialize
                0x9d015eec       0xac
 .text.TCPIP_TCP_Deinitialize
                0x9d015eec       0xac build/default/production/_ext/1408260596/tcp.o
                0x9d015eec                TCPIP_TCP_Deinitialize

.text._TCPIPStackInsertRxPacket
                0x9d015f98       0xac
 .text._TCPIPStackInsertRxPacket
                0x9d015f98       0xac build/default/production/_ext/1408260596/tcpip_manager.o
                0x9d015f98                _TCPIPStackInsertRxPacket

.text.DRV_ETHMAC_PIC32MACRegisterStatisticsGet
                0x9d016044       0xa8
 .text.DRV_ETHMAC_PIC32MACRegisterStatisticsGet
                0x9d016044       0xa8 build/default/production/_ext/1908841681/drv_ethmac.o
                0x9d016044                DRV_ETHMAC_PIC32MACRegisterStatisticsGet

.text._DRV_ETHPHY_SetupPhaseNegotiate_SubPhase6
                0x9d0160ec       0xa8
 .text._DRV_ETHPHY_SetupPhaseNegotiate_SubPhase6
                0x9d0160ec       0xa8 build/default/production/_ext/732687875/drv_ethphy.o

.text.DRV_ETHPHY_SMIWrite
                0x9d016194       0xa8
 .text.DRV_ETHPHY_SMIWrite
                0x9d016194       0xa8 build/default/production/_ext/732687875/drv_ethphy.o
                0x9d016194                DRV_ETHPHY_SMIWrite

.text.TCPIP_IPV4_ListPurge
                0x9d01623c       0xa8
 .text.TCPIP_IPV4_ListPurge
                0x9d01623c       0xa8 build/default/production/_ext/1408260596/ipv4.o

.text.PLIB_ETH_MACSetAddress
                0x9d0162e4       0xa8
 .text.PLIB_ETH_MACSetAddress
                0x9d0162e4       0xa8 ..\..\..\..\bin\framework\peripheral\PIC32MZ2048ECH144_peripherals.a(plib_eth_lib.o)
                0x9d0162e4                PLIB_ETH_MACSetAddress

.text           0x9d01638c       0xa8
 .text          0x9d01638c       0xa8 c:/program files (x86)/microchip/xc32/v1.40/bin/bin/../../lib/gcc/pic32mx/4.8.3/../../../../pic32mx/lib\libpic32.a(memset.o)
                0x9d01638c                memset

.text.TCPIP_UDP_PutIsReady
                0x9d016434       0xa4
 .text.TCPIP_UDP_PutIsReady
                0x9d016434       0xa4 build/default/production/_ext/1408260596/udp.o
                0x9d016434                TCPIP_UDP_PutIsReady

.text._DRV_ETHPHY_LinkStatPhaseRead
                0x9d0164d8       0xa0
 .text._DRV_ETHPHY_LinkStatPhaseRead
                0x9d0164d8       0xa0 build/default/production/_ext/732687875/drv_ethphy.o

.text._TcpAbort
                0x9d016578       0xa0
 .text._TcpAbort
                0x9d016578       0xa0 build/default/production/_ext/1408260596/tcp.o

.text._TCPSendWinIncUpdate
                0x9d016618       0xa0
 .text._TCPSendWinIncUpdate
                0x9d016618       0xa0 build/default/production/_ext/1408260596/tcp.o

.text.TCPIP_Helper_SingleListNodeRemove
                0x9d0166b8       0xa0
 .text.TCPIP_Helper_SingleListNodeRemove
                0x9d0166b8       0xa0 build/default/production/_ext/1408260596/tcpip_helpers.o
                0x9d0166b8                TCPIP_Helper_SingleListNodeRemove

.text.TCPIP_PKT_PacketMACFormat
                0x9d016758       0xa0
 .text.TCPIP_PKT_PacketMACFormat
                0x9d016758       0xa0 build/default/production/_ext/1408260596/tcpip_packet.o
                0x9d016758                TCPIP_PKT_PacketMACFormat

.text._DRV_ETHMAC_LinkStateGetLink
                0x9d0167f8       0x9c
 .text._DRV_ETHMAC_LinkStateGetLink
                0x9d0167f8       0x9c build/default/production/_ext/1908841681/drv_ethmac.o

.text.TCPIP_ARP_Probe
                0x9d016894       0x9c
 .text.TCPIP_ARP_Probe
                0x9d016894       0x9c build/default/production/_ext/1408260596/arp.o
                0x9d016894                TCPIP_ARP_Probe

.text.TCPIP_STACK_IPAddressIsLocalNetwork
                0x9d016930       0x9c
 .text.TCPIP_STACK_IPAddressIsLocalNetwork
                0x9d016930       0x9c build/default/production/_ext/1408260596/tcpip_manager.o
                0x9d016930                TCPIP_STACK_IPAddressIsLocalNetwork

.text.write     0x9d0169cc       0x9c
 .text.write    0x9d0169cc       0x9c c:/program files (x86)/microchip/xc32/v1.40/bin/bin/../../lib/gcc/pic32mx/4.8.3/../../../../pic32mx/lib\libpic32.a(write.o)
                0x9d0169cc                write

.text.fpcmp     0x9d016a68       0x9c
 .text.fpcmp    0x9d016a68       0x9c c:/program files (x86)/microchip/xc32/v1.40/bin/bin/../../lib/gcc/pic32mx/4.8.3/../../../../pic32mx/lib\libm.a(fpcmp.o)
                0x9d016a68                __eqsf2
                0x9d016a68                __lesf2
                0x9d016a68                __gtsf2
                0x9d016a68                __nesf2
                0x9d016a68                fpcmp
                0x9d016a68                __gesf2
                0x9d016a68                __ltsf2

.text.DRV_ETHMAC_LibDescriptorsPoolCleanUp
                0x9d016b04       0x98
 .text.DRV_ETHMAC_LibDescriptorsPoolCleanUp
                0x9d016b04       0x98 build/default/production/_ext/1908841681/drv_ethmac_lib.o
                0x9d016b04                DRV_ETHMAC_LibDescriptorsPoolCleanUp

.text.TCPIP_UDP_DestinationIPAddressSet
                0x9d016b9c       0x98
 .text.TCPIP_UDP_DestinationIPAddressSet
                0x9d016b9c       0x98 build/default/production/_ext/1408260596/udp.o
                0x9d016b9c                TCPIP_UDP_DestinationIPAddressSet

.text._TCPIP_PKT_PacketFree
                0x9d016c34       0x98
 .text._TCPIP_PKT_PacketFree
                0x9d016c34       0x98 build/default/production/_ext/1408260596/tcpip_packet.o
                0x9d016c34                _TCPIP_PKT_PacketFree

.text           0x9d016ccc       0x98
 .text          0x9d016ccc       0x98 c:/program files (x86)/microchip/xc32/v1.40/bin/bin/../../lib/gcc/pic32mx/4.8.3/../../../../pic32mx/lib\libpic32.a(memcmp.o)
                0x9d016ccc                memcmp

.text._UDPSetNewRxPacket
                0x9d016d64       0x94
 .text._UDPSetNewRxPacket
                0x9d016d64       0x94 build/default/production/_ext/1408260596/udp.o

.text.TCPIP_ARP_EntryGet
                0x9d016df8       0x94
 .text.TCPIP_ARP_EntryGet
                0x9d016df8       0x94 build/default/production/_ext/1408260596/arp.o
                0x9d016df8                TCPIP_ARP_EntryGet

.rodata         0x9d016e8c       0x94
 .rodata        0x9d016e8c       0x94 build/default/production/_ext/1408260596/tcpip_manager.o

.text._DRV_ETHMAC_LinkStateNegComplete
                0x9d016f20       0x90
 .text._DRV_ETHMAC_LinkStateNegComplete
                0x9d016f20       0x90 build/default/production/_ext/1908841681/drv_ethmac.o

.text.DRV_ETHPHY_SMIScanDataGet
                0x9d016fb0       0x90
 .text.DRV_ETHPHY_SMIScanDataGet
                0x9d016fb0       0x90 build/default/production/_ext/732687875/drv_ethphy.o
                0x9d016fb0                DRV_ETHPHY_SMIScanDataGet

.text._DRV_ETHPHY_NegCompletePhaseAN_Complete
                0x9d017040       0x90
 .text._DRV_ETHPHY_NegCompletePhaseAN_Complete
                0x9d017040       0x90 build/default/production/_ext/732687875/drv_ethphy.o

.text._SYS_TMR_ClientCheckSrvLock
                0x9d0170d0       0x90
 .text._SYS_TMR_ClientCheckSrvLock
                0x9d0170d0       0x90 build/default/production/_ext/1264926591/sys_tmr.o

.text._TcpCleanup
                0x9d017160       0x90
 .text._TcpCleanup
                0x9d017160       0x90 build/default/production/_ext/1408260596/tcp.o

.text.TCPIP_UDP_SocketInfoGet
                0x9d0171f0       0x90
 .text.TCPIP_UDP_SocketInfoGet
                0x9d0171f0       0x90 build/default/production/_ext/1408260596/udp.o
                0x9d0171f0                TCPIP_UDP_SocketInfoGet

.text._TCPIPStackIpAddFromAnyNet
                0x9d017280       0x90
 .text._TCPIPStackIpAddFromAnyNet
                0x9d017280       0x90 build/default/production/_ext/1408260596/tcpip_manager.o
                0x9d017280                _TCPIPStackIpAddFromAnyNet

.text.TCPIP_IPV4_Initialize
                0x9d017310       0x90
 .text.TCPIP_IPV4_Initialize
                0x9d017310       0x90 build/default/production/_ext/1408260596/ipv4.o
                0x9d017310                TCPIP_IPV4_Initialize

.text.hexatob   0x9d0173a0       0x8c
 .text.hexatob  0x9d0173a0       0x8c build/default/production/_ext/1136935090/helpers.o
                0x9d0173a0                hexatob

.text._UDPFreeTxResources
                0x9d01742c       0x8c
 .text._UDPFreeTxResources
                0x9d01742c       0x8c build/default/production/_ext/1408260596/udp.o

.text.TCPIP_Helper_FormatNetBIOSName
                0x9d0174b8       0x8c
 .text.TCPIP_Helper_FormatNetBIOSName
                0x9d0174b8       0x8c build/default/production/_ext/1408260596/tcpip_helpers.o
                0x9d0174b8                TCPIP_Helper_FormatNetBIOSName

.text.rand      0x9d017544       0x8c
 .text.rand     0x9d017544       0x8c c:/program files (x86)/microchip/xc32/v1.40/bin/bin/../../lib/gcc/pic32mx/4.8.3/../../../../pic32mx/lib\libc.a(rand.o)
                0x9d017544                rand

.text.DRV_CAN0_ChannelMessageTransmit
                0x9d0175d0       0x88
 .text.DRV_CAN0_ChannelMessageTransmit
                0x9d0175d0       0x88 build/default/production/_ext/337818580/drv_can_static.o
                0x9d0175d0                DRV_CAN0_ChannelMessageTransmit

.text.SYS_RANDOM_Initialize
                0x9d017658       0x88
 .text.SYS_RANDOM_Initialize
                0x9d017658       0x88 build/default/production/_ext/1283840359/sys_random.o
                0x9d017658                SYS_RANDOM_Initialize

.text.TCPIP_Helper_ProtectedSingleListRemoveAll
                0x9d0176e0       0x88
 .text.TCPIP_Helper_ProtectedSingleListRemoveAll
                0x9d0176e0       0x88 build/default/production/_ext/1408260596/tcpip_helpers.o
                0x9d0176e0                TCPIP_Helper_ProtectedSingleListRemoveAll

.text.libm      0x9d017768       0x88
 .text.libm     0x9d017768       0x88 c:/program files (x86)/microchip/xc32/v1.40/bin/bin/../../lib/gcc/pic32mx/4.8.3/../../../../pic32mx/lib\libm.a(fpfrexp.o)
                0x9d017768                frexpf
                0x9d017768                fpfrexp

.text.DRV_ETHPHY_VendorSMIReadResultGet
                0x9d0177f0       0x84
 .text.DRV_ETHPHY_VendorSMIReadResultGet
                0x9d0177f0       0x84 build/default/production/_ext/732687875/drv_ethphy.o
                0x9d0177f0                DRV_ETHPHY_VendorSMIReadResultGet

.text._DRV_TMR_ModuleObj
                0x9d017874       0x84
 .text._DRV_TMR_ModuleObj
                0x9d017874       0x84 build/default/production/_ext/185269848/drv_tmr.o

.text._TcpClientSocketConnect
                0x9d0178f8       0x84
 .text._TcpClientSocketConnect
                0x9d0178f8       0x84 build/default/production/_ext/1408260596/tcp.o

.text.zgzc_wait_for
                0x9d01797c       0x84
 .text.zgzc_wait_for
                0x9d01797c       0x84 build/default/production/_ext/1408260596/zero_conf_helper.o
                0x9d01797c                zgzc_wait_for

.text._TCPIPStackModuleSignalRequest
                0x9d017a00       0x84
 .text._TCPIPStackModuleSignalRequest
                0x9d017a00       0x84 build/default/production/_ext/1408260596/tcpip_manager.o
                0x9d017a00                _TCPIPStackModuleSignalRequest

.text.TCPIP_PKT_Initialize
                0x9d017a84       0x84
 .text.TCPIP_PKT_Initialize
                0x9d017a84       0x84 build/default/production/_ext/1408260596/tcpip_packet.o
                0x9d017a84                TCPIP_PKT_Initialize

.text._DRV_ETHPHY_SetupPhaseNegotiate_SubPhase1
                0x9d017b08       0x80
 .text._DRV_ETHPHY_SetupPhaseNegotiate_SubPhase1
                0x9d017b08       0x80 build/default/production/_ext/732687875/drv_ethphy.o

.text.DRV_ETHPHY_SMIScanStart
                0x9d017b88       0x80
 .text.DRV_ETHPHY_SMIScanStart
                0x9d017b88       0x80 build/default/production/_ext/732687875/drv_ethphy.o
                0x9d017b88                DRV_ETHPHY_SMIScanStart

.text.TCPIP_ICMP_Initialize
                0x9d017c08       0x80
 .text.TCPIP_ICMP_Initialize
                0x9d017c08       0x80 build/default/production/_ext/1408260596/icmp.o
                0x9d017c08                TCPIP_ICMP_Initialize

.text._DRV_ETHPHY_SetupPhaseNegotiate_SubPhase5
                0x9d017c88       0x7c
 .text._DRV_ETHPHY_SetupPhaseNegotiate_SubPhase5
                0x9d017c88       0x7c build/default/production/_ext/732687875/drv_ethphy.o

.text.DRV_ETHPHY_SMIRead
                0x9d017d04       0x7c
 .text.DRV_ETHPHY_SMIRead
                0x9d017d04       0x7c build/default/production/_ext/732687875/drv_ethphy.o
                0x9d017d04                DRV_ETHPHY_SMIRead

.text.DRV_ETHPHY_SMIScanStop
                0x9d017d80       0x7c
 .text.DRV_ETHPHY_SMIScanStop
                0x9d017d80       0x7c build/default/production/_ext/732687875/drv_ethphy.o
                0x9d017d80                DRV_ETHPHY_SMIScanStop

.text._TCP_EphemeralPortAllocate
                0x9d017dfc       0x7c
 .text._TCP_EphemeralPortAllocate
                0x9d017dfc       0x7c build/default/production/_ext/1408260596/tcp.o

.text._UDPAllocateEphemeralPort
                0x9d017e78       0x7c
 .text._UDPAllocateEphemeralPort
                0x9d017e78       0x7c build/default/production/_ext/1408260596/udp.o

.text.TCPIP_ARP_Deinitialize
                0x9d017ef4       0x7c
 .text.TCPIP_ARP_Deinitialize
                0x9d017ef4       0x7c build/default/production/_ext/1408260596/arp.o
                0x9d017ef4                TCPIP_ARP_Deinitialize

.text.TCPIP_ARP_HandlerRegister
                0x9d017f70       0x7c
 .text.TCPIP_ARP_HandlerRegister
                0x9d017f70       0x7c build/default/production/_ext/1408260596/arp.o
                0x9d017f70                TCPIP_ARP_HandlerRegister

.text._TCPIPStackAnyNetLinked
                0x9d017fec       0x7c
 .text._TCPIPStackAnyNetLinked
                0x9d017fec       0x7c build/default/production/_ext/1408260596/tcpip_manager.o
                0x9d017fec                _TCPIPStackAnyNetLinked

.text.fptoul    0x9d018068       0x7c
 .text.fptoul   0x9d018068       0x7c c:/program files (x86)/microchip/xc32/v1.40/bin/bin/../../lib/gcc/pic32mx/4.8.3/../../../../pic32mx/lib\libm.a(fptoul.o)
                0x9d018068                fptoul
                0x9d018068                fptoui
                0x9d018068                __fixunssfsi

.text.Arc4SetKey
                0x9d0180e4       0x78
 .text.Arc4SetKey
                0x9d0180e4       0x78 build/default/production/_ext/1886890887/arc4.o
                0x9d0180e4                Arc4SetKey

.text.DRV_ETHPHY_Open
                0x9d01815c       0x78
 .text.DRV_ETHPHY_Open
                0x9d01815c       0x78 build/default/production/_ext/732687875/drv_ethphy.o
                0x9d01815c                DRV_ETHPHY_Open

.text._DRV_ETHPHY_NegRestartPhaseRead
                0x9d0181d4       0x78
 .text._DRV_ETHPHY_NegRestartPhaseRead
                0x9d0181d4       0x78 build/default/production/_ext/732687875/drv_ethphy.o

.text.TCPIP_UDP_Close
                0x9d01824c       0x78
 .text.TCPIP_UDP_Close
                0x9d01824c       0x78 build/default/production/_ext/1408260596/udp.o
                0x9d01824c                TCPIP_UDP_Close

.rodata         0x9d0182c4       0x78
 .rodata        0x9d0182c4       0x78 build/default/production/_ext/1408260596/tcpip_helpers.o

.text._TCPIP_MacEventCB
                0x9d01833c       0x78
 .text._TCPIP_MacEventCB
                0x9d01833c       0x78 build/default/production/_ext/1408260596/tcpip_manager.o

.text._DRV_ETHPHY_SetupPhaseNegotiate_SubPhase2
                0x9d0183b4       0x74
 .text._DRV_ETHPHY_SetupPhaseNegotiate_SubPhase2
                0x9d0183b4       0x74 build/default/production/_ext/732687875/drv_ethphy.o

.text._DRV_ETHPHY_NegCompletePhaseRead1
                0x9d018428       0x74
 .text._DRV_ETHPHY_NegCompletePhaseRead1
                0x9d018428       0x74 build/default/production/_ext/732687875/drv_ethphy.o

.text._TcpSwapHeader
                0x9d01849c       0x74
 .text._TcpSwapHeader
                0x9d01849c       0x74 build/default/production/_ext/1408260596/tcp.o

.text.TCPIP_Helper_StringToPowerMode
                0x9d018510       0x74
 .text.TCPIP_Helper_StringToPowerMode
                0x9d018510       0x74 build/default/production/_ext/1408260596/tcpip_helpers.o
                0x9d018510                TCPIP_Helper_StringToPowerMode

.text.TCPIP_Helper_ProtectedSingleListTailAdd
                0x9d018584       0x74
 .text.TCPIP_Helper_ProtectedSingleListTailAdd
                0x9d018584       0x74 build/default/production/_ext/1408260596/tcpip_helpers.o
                0x9d018584                TCPIP_Helper_ProtectedSingleListTailAdd

.text.TCPIP_Helper_ProtectedSingleListHeadRemove
                0x9d0185f8       0x74
 .text.TCPIP_Helper_ProtectedSingleListHeadRemove
                0x9d0185f8       0x74 build/default/production/_ext/1408260596/tcpip_helpers.o
                0x9d0185f8                TCPIP_Helper_ProtectedSingleListHeadRemove

.text.TCPIP_Helper_ProtectedSingleListNodeRemove
                0x9d01866c       0x74
 .text.TCPIP_Helper_ProtectedSingleListNodeRemove
                0x9d01866c       0x74 build/default/production/_ext/1408260596/tcpip_helpers.o
                0x9d01866c                TCPIP_Helper_ProtectedSingleListNodeRemove

.text._TCPIPStackSignalHandlerRegister
                0x9d0186e0       0x74
 .text._TCPIPStackSignalHandlerRegister
                0x9d0186e0       0x74 build/default/production/_ext/1408260596/tcpip_manager.o
                0x9d0186e0                _TCPIPStackSignalHandlerRegister

.text._TCPIP_PKT_SocketAlloc
                0x9d018754       0x74
 .text._TCPIP_PKT_SocketAlloc
                0x9d018754       0x74 build/default/production/_ext/1408260596/tcpip_packet.o
                0x9d018754                _TCPIP_PKT_SocketAlloc

.text.strncpy   0x9d0187c8       0x74
 .text.strncpy  0x9d0187c8       0x74 c:/program files (x86)/microchip/xc32/v1.40/bin/bin/../../lib/gcc/pic32mx/4.8.3/../../../../pic32mx/lib\libc.a(strncpy.o)
                0x9d0187c8                strncpy

.text.DRV_ETHMAC_PIC32MACConfigGet
                0x9d000110       0x70
 .text.DRV_ETHMAC_PIC32MACConfigGet
                0x9d000110       0x70 build/default/production/_ext/1908841681/drv_ethmac.o
                0x9d000110                DRV_ETHMAC_PIC32MACConfigGet

.text._EnetPoolFreeDcptList
                0x9d000190       0x70
 .text._EnetPoolFreeDcptList
                0x9d000190       0x70 build/default/production/_ext/1908841681/drv_ethmac_lib.o

.text._DRV_ETHPHY_LinkStatPhaseRefresh
                0x9d01883c       0x70
 .text._DRV_ETHPHY_LinkStatPhaseRefresh
                0x9d01883c       0x70 build/default/production/_ext/732687875/drv_ethphy.o

.text.TCPIP_UDP_SocketNetSet
                0x9d0188ac       0x70
 .text.TCPIP_UDP_SocketNetSet
                0x9d0188ac       0x70 build/default/production/_ext/1408260596/udp.o
                0x9d0188ac                TCPIP_UDP_SocketNetSet

.text._ARPSetEntry
                0x9d01891c       0x70
 .text._ARPSetEntry
                0x9d01891c       0x70 build/default/production/_ext/1408260596/arp.o

.text.PLIB_ETH_MACGetAddress
                0x9d01898c       0x70
 .text.PLIB_ETH_MACGetAddress
                0x9d01898c       0x70 ..\..\..\..\bin\framework\peripheral\PIC32MZ2048ECH144_peripherals.a(plib_eth_lib.o)
                0x9d01898c                PLIB_ETH_MACGetAddress

.text.Arc4Process
                0x9d0189fc       0x6c
 .text.Arc4Process
                0x9d0189fc       0x6c build/default/production/_ext/1886890887/arc4.o
                0x9d0189fc                Arc4Process

.text._MacRxFreeCallback
                0x9d018a68       0x6c
 .text._MacRxFreeCallback
                0x9d018a68       0x6c build/default/production/_ext/1908841681/drv_ethmac.o

.text.TCPIP_TCP_Close
                0x9d018ad4       0x6c
 .text.TCPIP_TCP_Close
                0x9d018ad4       0x6c build/default/production/_ext/1408260596/tcp.o
                0x9d018ad4                TCPIP_TCP_Close

.text._UDPClose
                0x9d018b40       0x6c
 .text._UDPClose
                0x9d018b40       0x6c build/default/production/_ext/1408260596/udp.o

.text.TCPIP_ANNOUNCE_DeInit
                0x9d018bac       0x6c
 .text.TCPIP_ANNOUNCE_DeInit
                0x9d018bac       0x6c build/default/production/_ext/1408260596/tcpip_announce.o
                0x9d018bac                TCPIP_ANNOUNCE_DeInit

.text.TCPIP_Helper_ProtectedSingleListDeinitialize
                0x9d018c18       0x6c
 .text.TCPIP_Helper_ProtectedSingleListDeinitialize
                0x9d018c18       0x6c build/default/production/_ext/1408260596/tcpip_helpers.o
                0x9d018c18                TCPIP_Helper_ProtectedSingleListDeinitialize

.text.TCPIP_UDP_SignalHandlerRegister
                0x9d018c84       0x68
 .text.TCPIP_UDP_SignalHandlerRegister
                0x9d018c84       0x68 build/default/production/_ext/1408260596/udp.o
                0x9d018c84                TCPIP_UDP_SignalHandlerRegister

.text.TCPIP_ARP_HashEntryDelete
                0x9d018cec       0x68
 .text.TCPIP_ARP_HashEntryDelete
                0x9d018cec       0x68 build/default/production/_ext/1408260596/arp.o
                0x9d018cec                TCPIP_ARP_HashEntryDelete

.text._ZCLLEnable
                0x9d018d54       0x68
 .text._ZCLLEnable
                0x9d018d54       0x68 build/default/production/_ext/1408260596/zero_conf_link_local.o

.text.TCPIP_ZCLL_Enable
                0x9d018dbc       0x68
 .text.TCPIP_ZCLL_Enable
                0x9d018dbc       0x68 build/default/production/_ext/1408260596/zero_conf_link_local.o
                0x9d018dbc                TCPIP_ZCLL_Enable

.text.TCPIP_STACK_IsBcastAddress
                0x9d018e24       0x68
 .text.TCPIP_STACK_IsBcastAddress
                0x9d018e24       0x68 build/default/production/_ext/1408260596/tcpip_manager.o
                0x9d018e24                TCPIP_STACK_IsBcastAddress

.text._TCPIPStackModuleRxInsert
                0x9d018e8c       0x68
 .text._TCPIPStackModuleRxInsert
                0x9d018e8c       0x68 build/default/production/_ext/1408260596/tcpip_manager.o
                0x9d018e8c                _TCPIPStackModuleRxInsert

.text._sprintf_cdnopsuxX
                0x9d018ef4       0x68
 .text._sprintf_cdnopsuxX
                0x9d018ef4       0x68 c:/program files (x86)/microchip/xc32/v1.40/bin/bin/../../lib/gcc/pic32mx/4.8.3/../../../../pic32mx/lib\libc.a(sprintf_cdnopsuxX.eo)
                0x9d018ef4                _sprintf_cdnopuxX
                0x9d018ef4                _sprintf_cdnopsuxX

.text.sprintf   0x9d018f5c       0x68
 .text.sprintf  0x9d018f5c       0x68 c:/program files (x86)/microchip/xc32/v1.40/bin/bin/../../lib/gcc/pic32mx/4.8.3/../../../../pic32mx/lib\libc.a(sprintf.o)
                0x9d018f5c                sprintf

.rodata         0x9d018fc4       0x68
 .rodata        0x9d018fc4       0x68 c:/program files (x86)/microchip/xc32/v1.40/bin/bin/../../lib/gcc/pic32mx/4.8.3/../../../../pic32mx/lib\libc.a(powersf.o)
                0x9d018fc4                _powers_f
                0x9d018ff8                _npowers_f

.text.DRV_ETHPHY_SMIScanStatusGet
                0x9d01902c       0x64
 .text.DRV_ETHPHY_SMIScanStatusGet
                0x9d01902c       0x64 build/default/production/_ext/732687875/drv_ethphy.o
                0x9d01902c                DRV_ETHPHY_SMIScanStatusGet

.text.DRV_TMR_Start
                0x9d019090       0x64
 .text.DRV_TMR_Start
                0x9d019090       0x64 build/default/production/_ext/185269848/drv_tmr.o
                0x9d019090                DRV_TMR_Start

.text.TCPIP_UDP_OpenClientSkt
                0x9d0190f4       0x64
 .text.TCPIP_UDP_OpenClientSkt
                0x9d0190f4       0x64 build/default/production/_ext/1408260596/udp.o
                0x9d0190f4                TCPIP_UDP_OpenClientSkt

.text.TCPIP_UDP_GetIsReady
                0x9d019158       0x64
 .text.TCPIP_UDP_GetIsReady
                0x9d019158       0x64 build/default/production/_ext/1408260596/udp.o
                0x9d019158                TCPIP_UDP_GetIsReady

.text.TCPIP_ICMP_Deinitialize
                0x9d0191bc       0x64
 .text.TCPIP_ICMP_Deinitialize
                0x9d0191bc       0x64 build/default/production/_ext/1408260596/icmp.o
                0x9d0191bc                TCPIP_ICMP_Deinitialize

.text.InitRng   0x9d019220       0x60
 .text.InitRng  0x9d019220       0x60 build/default/production/_ext/1886890887/random.o
                0x9d019220                InitRng

.text.DRV_ETHMAC_PIC32MACParametersGet
                0x9d019280       0x60
 .text.DRV_ETHMAC_PIC32MACParametersGet
                0x9d019280       0x60 build/default/production/_ext/1908841681/drv_ethmac.o
                0x9d019280                DRV_ETHMAC_PIC32MACParametersGet

.text.TCPIP_ARP_CallbacksRegister
                0x9d0192e0       0x60
 .text.TCPIP_ARP_CallbacksRegister
                0x9d0192e0       0x60 build/default/production/_ext/1408260596/arp.o
                0x9d0192e0                TCPIP_ARP_CallbacksRegister

.text.sitofp    0x9d019340       0x60
 .text.sitofp   0x9d019340       0x60 c:/program files (x86)/microchip/xc32/v1.40/bin/bin/../../lib/gcc/pic32mx/4.8.3/../../../../pic32mx/lib\libm.a(sitofp.o)
                0x9d019340                sitofp
                0x9d019340                litofp
                0x9d019340                __floatsisf

.text.SYS_Tasks
                0x9d0193a0       0x5c
 .text.SYS_Tasks
                0x9d0193a0       0x5c build/default/production/_ext/1688732426/system_tasks.o
                0x9d0193a0                SYS_Tasks

.text._DRV_ETHPHY_SetupPhaseNegotiate
                0x9d0193fc       0x5c
 .text._DRV_ETHPHY_SetupPhaseNegotiate
                0x9d0193fc       0x5c build/default/production/_ext/732687875/drv_ethphy.o

.text._DRV_ETHPHY_ClientOpSmiRead
                0x9d019458       0x5c
 .text._DRV_ETHPHY_ClientOpSmiRead
                0x9d019458       0x5c build/default/production/_ext/732687875/drv_ethphy.o

.text._DRV_ETHPHY_ClientOpNegRestart
                0x9d0194b4       0x5c
 .text._DRV_ETHPHY_ClientOpNegRestart
                0x9d0194b4       0x5c build/default/production/_ext/732687875/drv_ethphy.o

.text._DRV_ETHPHY_ClientOpNegComplete
                0x9d019510       0x5c
 .text._DRV_ETHPHY_ClientOpNegComplete
                0x9d019510       0x5c build/default/production/_ext/732687875/drv_ethphy.o

.text.DRV_ETHPHY_NegotiationResultGet
                0x9d01956c       0x5c
 .text.DRV_ETHPHY_NegotiationResultGet
                0x9d01956c       0x5c build/default/production/_ext/732687875/drv_ethphy.o
                0x9d01956c                DRV_ETHPHY_NegotiationResultGet

.text._DRV_ETHPHY_ClientOpNegResult
                0x9d0195c8       0x5c
 .text._DRV_ETHPHY_ClientOpNegResult
                0x9d0195c8       0x5c build/default/production/_ext/732687875/drv_ethphy.o

.text.DRV_ETHPHY_LinkStatusGet
                0x9d019624       0x5c
 .text.DRV_ETHPHY_LinkStatusGet
                0x9d019624       0x5c build/default/production/_ext/732687875/drv_ethphy.o
                0x9d019624                DRV_ETHPHY_LinkStatusGet

.text._DRV_ETHPHY_ClientOpLinkStat
                0x9d019680       0x5c
 .text._DRV_ETHPHY_ClientOpLinkStat
                0x9d019680       0x5c build/default/production/_ext/732687875/drv_ethphy.o

.text._DRV_ETHPHY_ClientOpReset
                0x9d0196dc       0x5c
 .text._DRV_ETHPHY_ClientOpReset
                0x9d0196dc       0x5c build/default/production/_ext/732687875/drv_ethphy.o

.text.DRV_TMR_Open
                0x9d019738       0x5c
 .text.DRV_TMR_Open
                0x9d019738       0x5c build/default/production/_ext/185269848/drv_tmr.o
                0x9d019738                DRV_TMR_Open

.text.fnv_32_hash
                0x9d019794       0x5c
 .text.fnv_32_hash
                0x9d019794       0x5c build/default/production/_ext/1408260596/hash_fnv.o
                0x9d019794                fnv_32_hash

.text.TCPIP_OAHASH_EntriesRemoveAll
                0x9d0197f0       0x5c
 .text.TCPIP_OAHASH_EntriesRemoveAll
                0x9d0197f0       0x5c build/default/production/_ext/1408260596/oahash.o
                0x9d0197f0                TCPIP_OAHASH_EntriesRemoveAll

.text.vsnprintf
                0x9d01984c       0x5c
 .text.vsnprintf
                0x9d01984c       0x5c c:/program files (x86)/microchip/xc32/v1.40/bin/bin/../../lib/gcc/pic32mx/4.8.3/../../../../pic32mx/lib\libc.a(vsnprintf.o)
                0x9d01984c                vsnprintf

.text.TCPIP_STACK_Init
                0x9d0198a8       0x58
 .text.TCPIP_STACK_Init
                0x9d0198a8       0x58 build/default/production/_ext/1688732426/system_init.o
                0x9d0198a8                TCPIP_STACK_Init

.text.RNG_GenerateBlock
                0x9d019900       0x58
 .text.RNG_GenerateBlock
                0x9d019900       0x58 build/default/production/_ext/1886890887/random.o
                0x9d019900                RNG_GenerateBlock

.text.DRV_ETHMAC_PIC32MACOpen
                0x9d019958       0x58
 .text.DRV_ETHMAC_PIC32MACOpen
                0x9d019958       0x58 build/default/production/_ext/1908841681/drv_ethmac.o
                0x9d019958                DRV_ETHMAC_PIC32MACOpen

.text._MacTxDiscardQueues
                0x9d0199b0       0x58
 .text._MacTxDiscardQueues
                0x9d0199b0       0x58 build/default/production/_ext/1908841681/drv_ethmac.o

.text.DRV_ETHPHY_Initialize
                0x9d019a08       0x58
 .text.DRV_ETHPHY_Initialize
                0x9d019a08       0x58 build/default/production/_ext/732687875/drv_ethphy.o
                0x9d019a08                DRV_ETHPHY_Initialize

.text._DRV_ETHPHY_ClientOpSetup
                0x9d019a60       0x58
 .text._DRV_ETHPHY_ClientOpSetup
                0x9d019a60       0x58 build/default/production/_ext/732687875/drv_ethphy.o

.text.SYS_DEVCON_SystemUnlock
                0x9d019ab8       0x58
 .text.SYS_DEVCON_SystemUnlock
                0x9d019ab8       0x58 build/default/production/_ext/1271179505/sys_devcon.o
                0x9d019ab8                SYS_DEVCON_SystemUnlock

.text._TcpSocketKill
                0x9d019b10       0x58
 .text._TcpSocketKill
                0x9d019b10       0x58 build/default/production/_ext/1408260596/tcp.o

.text._TCPSocketTxFreeSize
                0x9d019b68       0x58
 .text._TCPSocketTxFreeSize
                0x9d019b68       0x58 build/default/production/_ext/1408260596/tcp.o

.text.TCPIP_ZCLL_Deinitialize
                0x9d019bc0       0x58
 .text.TCPIP_ZCLL_Deinitialize
                0x9d019bc0       0x58 build/default/production/_ext/1408260596/zero_conf_link_local.o
                0x9d019bc0                TCPIP_ZCLL_Deinitialize

.text.TCPIP_STACK_NetByAddress
                0x9d019c18       0x58
 .text.TCPIP_STACK_NetByAddress
                0x9d019c18       0x58 build/default/production/_ext/1408260596/tcpip_manager.o
                0x9d019c18                TCPIP_STACK_NetByAddress

.text.main_entry
                0x9d019c70       0x54
 .text.main_entry
                0x9d019c70       0x54 c:/program files (x86)/microchip/xc32/v1.40/bin/bin/../../lib/gcc/pic32mx/4.8.3/../../../../pic32mx/lib/./proc/32MZ2048ECH144/crt0_mips32r2.o
                0x9d019ca4                __crt0_exit

.text.DRV_ETHMAC_PIC32MACLinkCheck
                0x9d019cc4       0x54
 .text.DRV_ETHMAC_PIC32MACLinkCheck
                0x9d019cc4       0x54 build/default/production/_ext/1908841681/drv_ethmac.o
                0x9d019cc4                DRV_ETHMAC_PIC32MACLinkCheck

.text._DRV_ETHMAC_LinkStateStartLink
                0x9d019d18       0x54
 .text._DRV_ETHMAC_LinkStateStartLink
                0x9d019d18       0x54 build/default/production/_ext/1908841681/drv_ethmac.o

.text._EnetDescriptorsCount
                0x9d019d6c       0x54
 .text._EnetDescriptorsCount
                0x9d019d6c       0x54 build/default/production/_ext/1908841681/drv_ethmac_lib.o

.text.SYS_INT_SourceDisable
                0x9d019dc0       0x54
 .text.SYS_INT_SourceDisable
                0x9d019dc0       0x54 build/default/production/_ext/122796885/sys_int_pic32.o
                0x9d019dc0                SYS_INT_SourceDisable

.text.SYS_TMR_ObjectDelete
                0x9d019e14       0x54
 .text.SYS_TMR_ObjectDelete
                0x9d019e14       0x54 build/default/production/_ext/1264926591/sys_tmr.o
                0x9d019e14                SYS_TMR_ObjectDelete

.text._TCP_PortIsAvailable
                0x9d019e68       0x54
 .text._TCP_PortIsAvailable
                0x9d019e68       0x54 build/default/production/_ext/1408260596/tcp.o

.text._TCPIP_AnnounceCleanup
                0x9d019ebc       0x54
 .text._TCPIP_AnnounceCleanup
                0x9d019ebc       0x54 build/default/production/_ext/1408260596/tcpip_announce.o

.text.TCPIP_Notification_Remove
                0x9d019f10       0x54
 .text.TCPIP_Notification_Remove
                0x9d019f10       0x54 build/default/production/_ext/1408260596/tcpip_notify.o
                0x9d019f10                TCPIP_Notification_Remove

.text._XtlEventsTcp2Eth
                0x9d019f64       0x50
 .text._XtlEventsTcp2Eth
                0x9d019f64       0x50 build/default/production/_ext/1908841681/drv_ethmac.o

.text.DRV_ETHPHY_HWConfigFlagsGet
                0x9d019fb4       0x50
 .text.DRV_ETHPHY_HWConfigFlagsGet
                0x9d019fb4       0x50 build/default/production/_ext/732687875/drv_ethphy.o
                0x9d019fb4                DRV_ETHPHY_HWConfigFlagsGet

.text._DRV_ETHPHY_NegResultPhase_ANEXP
                0x9d01a004       0x50
 .text._DRV_ETHPHY_NegResultPhase_ANEXP
                0x9d01a004       0x50 build/default/production/_ext/732687875/drv_ethphy.o

.text._DRV_ETHPHY_NegResultPhase_ANLPAD
                0x9d01a054       0x50
 .text._DRV_ETHPHY_NegResultPhase_ANLPAD
                0x9d01a054       0x50 build/default/production/_ext/732687875/drv_ethphy.o

.text._TCPSetSourceAddress
                0x9d01a0a4       0x50
 .text._TCPSetSourceAddress
                0x9d01a0a4       0x50 build/default/production/_ext/1408260596/tcp.o

.text._TcpFlush
                0x9d01a0f4       0x50
 .text._TcpFlush
                0x9d01a0f4       0x50 build/default/production/_ext/1408260596/tcp.o

.text._TCPSetHalfFlushFlag
                0x9d01a144       0x50
 .text._TCPSetHalfFlushFlag
                0x9d01a144       0x50 build/default/production/_ext/1408260596/tcp.o

.text.TCPIP_NBNS_Deinitialize
                0x9d01a194       0x50
 .text.TCPIP_NBNS_Deinitialize
                0x9d01a194       0x50 build/default/production/_ext/1408260596/nbns.o
                0x9d01a194                TCPIP_NBNS_Deinitialize

.text._ZCLLDisable
                0x9d01a1e4       0x50
 .text._ZCLLDisable
                0x9d01a1e4       0x50 build/default/production/_ext/1408260596/zero_conf_link_local.o

.text.TCPIP_HEAP_Delete
                0x9d01a234       0x50
 .text.TCPIP_HEAP_Delete
                0x9d01a234       0x50 build/default/production/_ext/1408260596/tcpip_heap_alloc.o
                0x9d01a234                TCPIP_HEAP_Delete

.text._TCPIPStackModuleSignalGet
                0x9d01a284       0x50
 .text._TCPIPStackModuleSignalGet
                0x9d01a284       0x50 build/default/production/_ext/1408260596/tcpip_manager.o
                0x9d01a284                _TCPIPStackModuleSignalGet

.text._TCPIP_PKT_PacketAcknowledge
                0x9d01a2d4       0x50
 .text._TCPIP_PKT_PacketAcknowledge
                0x9d01a2d4       0x50 build/default/production/_ext/1408260596/tcpip_packet.o
                0x9d01a2d4                _TCPIP_PKT_PacketAcknowledge

.text.sbrk      0x9d01a324       0x50
 .text.sbrk     0x9d01a324       0x50 c:/program files (x86)/microchip/xc32/v1.40/bin/bin/../../lib/gcc/pic32mx/4.8.3/../../../../pic32mx/lib\libpic32.a(sbrk.o)
                0x9d01a324                sbrk

.text._MACTxPacketAckCallback
                0x9d01a374       0x4c
 .text._MACTxPacketAckCallback
                0x9d01a374       0x4c build/default/production/_ext/1908841681/drv_ethmac.o

.text._DRV_ETHPHY_SetupPhaseNegotiate_SubPhase4
                0x9d01a3c0       0x4c
 .text._DRV_ETHPHY_SetupPhaseNegotiate_SubPhase4
                0x9d01a3c0       0x4c build/default/production/_ext/732687875/drv_ethphy.o

.text.DRV_ETHPHY_NegotiationIsComplete
                0x9d01a40c       0x4c
 .text.DRV_ETHPHY_NegotiationIsComplete
                0x9d01a40c       0x4c build/default/production/_ext/732687875/drv_ethphy.o
                0x9d01a40c                DRV_ETHPHY_NegotiationIsComplete

.text._DRV_PHY_NegCompleteSetOperResult
                0x9d01a458       0x4c
 .text._DRV_PHY_NegCompleteSetOperResult
                0x9d01a458       0x4c build/default/production/_ext/732687875/drv_ethphy.o

.text.DRV_ETHPHY_Reset
                0x9d01a4a4       0x4c
 .text.DRV_ETHPHY_Reset
                0x9d01a4a4       0x4c build/default/production/_ext/732687875/drv_ethphy.o
                0x9d01a4a4                DRV_ETHPHY_Reset

.text._ARPRemoveCacheEntries
                0x9d01a4f0       0x4c
 .text._ARPRemoveCacheEntries
                0x9d01a4f0       0x4c build/default/production/_ext/1408260596/arp.o

.text.TCPIP_NBNS_Cleanup
                0x9d01a53c       0x4c
 .text.TCPIP_NBNS_Cleanup
                0x9d01a53c       0x4c build/default/production/_ext/1408260596/nbns.o

.text._TCPIP_HEAP_Calloc
                0x9d01a588       0x4c
 .text._TCPIP_HEAP_Calloc
                0x9d01a588       0x4c build/default/production/_ext/1408260596/tcpip_heap_alloc.o
                0x9d01a588                _TCPIP_HEAP_Calloc

.text.TCPIP_STACK_MACIdToString
                0x9d01a5d4       0x4c
 .text.TCPIP_STACK_MACIdToString
                0x9d01a5d4       0x4c build/default/production/_ext/1408260596/tcpip_manager.o
                0x9d01a5d4                TCPIP_STACK_MACIdToString

.text.TCPIP_Notification_Add
                0x9d01a620       0x4c
 .text.TCPIP_Notification_Add
                0x9d01a620       0x4c build/default/production/_ext/1408260596/tcpip_notify.o
                0x9d01a620                TCPIP_Notification_Add

.text           0x9d01a66c       0x4c
 .text          0x9d01a66c       0x4c c:/program files (x86)/microchip/xc32/v1.40/bin/bin/../../lib/gcc/pic32mx/4.8.3\libgcc.a(floatunsisf.o)
                0x9d01a66c                __floatunsisf

.text._DRV_ETHPHY_ClientOpSmiWrite
                0x9d01a6b8       0x48
 .text._DRV_ETHPHY_ClientOpSmiWrite
                0x9d01a6b8       0x48 build/default/production/_ext/732687875/drv_ethphy.o

.text.DRV_ETHPHY_RestartNegotiation
                0x9d01a700       0x48
 .text.DRV_ETHPHY_RestartNegotiation
                0x9d01a700       0x48 build/default/production/_ext/732687875/drv_ethphy.o
                0x9d01a700                DRV_ETHPHY_RestartNegotiation

.text._DRV_ETHPHY_NegRestartPhaseWrite
                0x9d01a748       0x48
 .text._DRV_ETHPHY_NegRestartPhaseWrite
                0x9d01a748       0x48 build/default/production/_ext/732687875/drv_ethphy.o

.text.SYS_DEVCON_SystemLock
                0x9d01a790       0x48
 .text.SYS_DEVCON_SystemLock
                0x9d01a790       0x48 build/default/production/_ext/1271179505/sys_devcon.o
                0x9d01a790                SYS_DEVCON_SystemLock

.text.strupr    0x9d01a7d8       0x48
 .text.strupr   0x9d01a7d8       0x48 build/default/production/_ext/1136935090/helpers.o
                0x9d01a7d8                strupr

.text._UDPIsAvailablePort
                0x9d01a820       0x48
 .text._UDPIsAvailablePort
                0x9d01a820       0x48 build/default/production/_ext/1408260596/udp.o

.text.TCPIP_ARP_HandlerDeRegister
                0x9d01a868       0x48
 .text.TCPIP_ARP_HandlerDeRegister
                0x9d01a868       0x48 build/default/production/_ext/1408260596/arp.o
                0x9d01a868                TCPIP_ARP_HandlerDeRegister

.text.TCPIP_Helper_SingleListAppend
                0x9d01a8b0       0x48
 .text.TCPIP_Helper_SingleListAppend
                0x9d01a8b0       0x48 build/default/production/_ext/1408260596/tcpip_helpers.o
                0x9d01a8b0                TCPIP_Helper_SingleListAppend

.text.TCPIP_Helper_ProtectedSingleListLock
                0x9d01a8f8       0x48
 .text.TCPIP_Helper_ProtectedSingleListLock
                0x9d01a8f8       0x48 build/default/production/_ext/1408260596/tcpip_helpers.o
                0x9d01a8f8                TCPIP_Helper_ProtectedSingleListLock

.text.TCPIP_STACK_IPAddToNet
                0x9d01a940       0x48
 .text.TCPIP_STACK_IPAddToNet
                0x9d01a940       0x48 build/default/production/_ext/1408260596/tcpip_manager.o
                0x9d01a940                TCPIP_STACK_IPAddToNet

.text.TCPIP_Notification_RemoveAll
                0x9d01a988       0x48
 .text.TCPIP_Notification_RemoveAll
                0x9d01a988       0x48 build/default/production/_ext/1408260596/tcpip_notify.o
                0x9d01a988                TCPIP_Notification_RemoveAll

.text._bootstrap_exception_handler
                0x9d01a9d0       0x48
 .text._bootstrap_exception_handler
                0x9d01a9d0       0x48 c:/program files (x86)/microchip/xc32/v1.40/bin/bin/../../lib/gcc/pic32mx/4.8.3/../../../../pic32mx/lib\libpic32.a(default-bootstrap-exception-handler.o)
                0x9d01a9d0                _bootstrap_exception_handler

.text._cache_err_exception_handler
                0x9d01aa18       0x48
 .text._cache_err_exception_handler
                0x9d01aa18       0x48 c:/program files (x86)/microchip/xc32/v1.40/bin/bin/../../lib/gcc/pic32mx/4.8.3/../../../../pic32mx/lib\libpic32.a(default-cache-err-exception-handler.o)
                0x9d01aa18                _cache_err_exception_handler

.text._simple_tlb_refill_exception_handler
                0x9d01aa60       0x48
 .text._simple_tlb_refill_exception_handler
                0x9d01aa60       0x48 c:/program files (x86)/microchip/xc32/v1.40/bin/bin/../../lib/gcc/pic32mx/4.8.3/../../../../pic32mx/lib\libpic32.a(default-simple-tlb-refill-exception-handler.o)
                0x9d01aa60                _simple_tlb_refill_exception_handler

.text.DRV_ETHPHY_Tasks
                0x9d01aaa8       0x44
 .text.DRV_ETHPHY_Tasks
                0x9d01aaa8       0x44 build/default/production/_ext/732687875/drv_ethphy.o
                0x9d01aaa8                DRV_ETHPHY_Tasks

.text._SwapARPPacket
                0x9d01aaec       0x44
 .text._SwapARPPacket
                0x9d01aaec       0x44 build/default/production/_ext/1408260596/arp.o

.text._TCPIP_STACK_TickHandler
                0x9d01ab30       0x44
 .text._TCPIP_STACK_TickHandler
                0x9d01ab30       0x44 build/default/production/_ext/1408260596/tcpip_manager.o

.text.TCPIP_STACK_NetIsBcastAddress
                0x9d01ab74       0x44
 .text.TCPIP_STACK_NetIsBcastAddress
                0x9d01ab74       0x44 build/default/production/_ext/1408260596/tcpip_manager.o
                0x9d01ab74                TCPIP_STACK_NetIsBcastAddress

.text.PLIB_ETH_RxSetBufferSize
                0x9d01abb8       0x44
 .text.PLIB_ETH_RxSetBufferSize
                0x9d01abb8       0x44 ..\..\..\..\bin\framework\peripheral\PIC32MZ2048ECH144_peripherals.a(plib_eth_lib.o)
                0x9d01abb8                PLIB_ETH_RxSetBufferSize

.text           0x9d01abfc       0x44
 .text          0x9d01abfc       0x44 c:/program files (x86)/microchip/xc32/v1.40/bin/bin/../../lib/gcc/pic32mx/4.8.3/../../../../pic32mx/lib\pic32_software_reset.o
                0x9d01abfc                __pic32_software_reset

.text.strcat    0x9d01ac40       0x44
 .text.strcat   0x9d01ac40       0x44 c:/program files (x86)/microchip/xc32/v1.40/bin/bin/../../lib/gcc/pic32mx/4.8.3/../../../../pic32mx/lib\libc.a(strcat.o)
                0x9d01ac40                strcat

.text._DRV_ETHPHY_NegCompletePhaseResultNoWait
                0x9d01ac84       0x40
 .text._DRV_ETHPHY_NegCompletePhaseResultNoWait
                0x9d01ac84       0x40 build/default/production/_ext/732687875/drv_ethphy.o

.text.TCPIP_TCP_IsConnected
                0x9d01acc4       0x40
 .text.TCPIP_TCP_IsConnected
                0x9d01acc4       0x40 build/default/production/_ext/1408260596/tcp.o
                0x9d01acc4                TCPIP_TCP_IsConnected

.text.TCPIP_TCP_PutIsReady
                0x9d01ad04       0x40
 .text.TCPIP_TCP_PutIsReady
                0x9d01ad04       0x40 build/default/production/_ext/1408260596/tcp.o
                0x9d01ad04                TCPIP_TCP_PutIsReady

.text._TCPIP_HEAP_DataCacheInvalidate
                0x9d01ad44       0x40
 .text._TCPIP_HEAP_DataCacheInvalidate
                0x9d01ad44       0x40 build/default/production/_ext/1408260596/tcpip_heap_alloc.o
                0x9d01ad44                _TCPIP_HEAP_DataCacheInvalidate

.text.SYS_CLK_PeripheralFrequencyGet
                0x9d01ad84       0x3c
 .text.SYS_CLK_PeripheralFrequencyGet
                0x9d01ad84       0x3c build/default/production/_ext/639803181/sys_clk_static.o
                0x9d01ad84                SYS_CLK_PeripheralFrequencyGet

.text._general_exception_handler
                0x9d01adc0       0x3c
 .text._general_exception_handler
                0x9d01adc0       0x3c build/default/production/_ext/1688732426/system_exceptions.o
                0x9d01adc0                _general_exception_handler

.text._DRV_ETHMAC_LinkStateDown
                0x9d01adfc       0x3c
 .text._DRV_ETHMAC_LinkStateDown
                0x9d01adfc       0x3c build/default/production/_ext/1908841681/drv_ethmac.o

.text.DRV_ETHMAC_SingleListHeadRemove
                0x9d01ae38       0x3c
 .text.DRV_ETHMAC_SingleListHeadRemove
                0x9d01ae38       0x3c build/default/production/_ext/1908841681/drv_ethmac_lib.o
                0x9d01ae38                DRV_ETHMAC_SingleListHeadRemove

.text.LFSRRand  0x9d01ae74       0x3c
 .text.LFSRRand
                0x9d01ae74       0x3c build/default/production/_ext/1136935090/lfsr.o
                0x9d01ae74                LFSRRand

.text._TCPIsGetReady
                0x9d01aeb0       0x3c
 .text._TCPIsGetReady
                0x9d01aeb0       0x3c build/default/production/_ext/1408260596/tcp.o

.text._UDPTxPktValid
                0x9d01aeec       0x3c
 .text._UDPTxPktValid
                0x9d01aeec       0x3c build/default/production/_ext/1408260596/udp.o

.text._UDPFreeRxQueue
                0x9d01af28       0x3c
 .text._UDPFreeRxQueue
                0x9d01af28       0x3c build/default/production/_ext/1408260596/udp.o

.text.TCPIP_ARP_CallbacksDeregister
                0x9d01af64       0x3c
 .text.TCPIP_ARP_CallbacksDeregister
                0x9d01af64       0x3c build/default/production/_ext/1408260596/arp.o
                0x9d01af64                TCPIP_ARP_CallbacksDeregister

.text._ARPTxAckFnc
                0x9d01afa0       0x3c
 .text._ARPTxAckFnc
                0x9d01afa0       0x3c build/default/production/_ext/1408260596/arp.o

.text.TCPIP_ARP_HashKeyHash
                0x9d01afdc       0x3c
 .text.TCPIP_ARP_HashKeyHash
                0x9d01afdc       0x3c build/default/production/_ext/1408260596/arp.o
                0x9d01afdc                TCPIP_ARP_HashKeyHash

.text._ICMPAllocateTxPacketStruct
                0x9d01b018       0x3c
 .text._ICMPAllocateTxPacketStruct
                0x9d01b018       0x3c build/default/production/_ext/1408260596/icmp.o

.text._ZCLLCleanup
                0x9d01b054       0x3c
 .text._ZCLLCleanup
                0x9d01b054       0x3c build/default/production/_ext/1408260596/zero_conf_link_local.o

.text.TCPIP_OAHASH_Initialize
                0x9d01b090       0x3c
 .text.TCPIP_OAHASH_Initialize
                0x9d01b090       0x3c build/default/production/_ext/1408260596/oahash.o
                0x9d01b090                TCPIP_OAHASH_Initialize

.text.TCPIP_Helper_SingleListHeadRemove
                0x9d01b0cc       0x3c
 .text.TCPIP_Helper_SingleListHeadRemove
                0x9d01b0cc       0x3c build/default/production/_ext/1408260596/tcpip_helpers.o
                0x9d01b0cc                TCPIP_Helper_SingleListHeadRemove

.text.TCPIP_Helper_ProtectedSingleListInitialize
                0x9d01b108       0x3c
 .text.TCPIP_Helper_ProtectedSingleListInitialize
                0x9d01b108       0x3c build/default/production/_ext/1408260596/tcpip_helpers.o
                0x9d01b108                TCPIP_Helper_ProtectedSingleListInitialize

.text._TCPIPStackSetConfigAddress
                0x9d01b144       0x3c
 .text._TCPIPStackSetConfigAddress
                0x9d01b144       0x3c build/default/production/_ext/1408260596/tcpip_manager.o
                0x9d01b144                _TCPIPStackSetConfigAddress

.text._TCPIPSignalEntryNotify
                0x9d01b180       0x3c
 .text._TCPIPSignalEntryNotify
                0x9d01b180       0x3c build/default/production/_ext/1408260596/tcpip_manager.o

.text._EthMacReset
                0x9d01b1bc       0x38
 .text._EthMacReset
                0x9d01b1bc       0x38 build/default/production/_ext/1908841681/drv_ethmac_lib.o

.text.DRV_ETHMAC_LibDescriptorGetBuffer
                0x9d01b1f4       0x38
 .text.DRV_ETHMAC_LibDescriptorGetBuffer
                0x9d01b1f4       0x38 build/default/production/_ext/1908841681/drv_ethmac_lib.o
                0x9d01b1f4                DRV_ETHMAC_LibDescriptorGetBuffer

.text.DRV_ETHMAC_LibRxPendingBuffersGet
                0x9d01b22c       0x38
 .text.DRV_ETHMAC_LibRxPendingBuffersGet
                0x9d01b22c       0x38 build/default/production/_ext/1908841681/drv_ethmac_lib.o
                0x9d01b22c                DRV_ETHMAC_LibRxPendingBuffersGet

.text.DRV_ETHMAC_LibRxScheduledBuffersGet
                0x9d01b264       0x38
 .text.DRV_ETHMAC_LibRxScheduledBuffersGet
                0x9d01b264       0x38 build/default/production/_ext/1908841681/drv_ethmac_lib.o
                0x9d01b264                DRV_ETHMAC_LibRxScheduledBuffersGet

.text.DRV_ETHMAC_LibTxPendingBuffersGet
                0x9d01b29c       0x38
 .text.DRV_ETHMAC_LibTxPendingBuffersGet
                0x9d01b29c       0x38 build/default/production/_ext/1908841681/drv_ethmac_lib.o
                0x9d01b29c                DRV_ETHMAC_LibTxPendingBuffersGet

.text._DRV_PHY_SMIReadStart
                0x9d01b2d4       0x38
 .text._DRV_PHY_SMIReadStart
                0x9d01b2d4       0x38 build/default/production/_ext/732687875/drv_ethphy.o

.text._DRV_PHY_SMIWriteStart
                0x9d01b30c       0x38
 .text._DRV_PHY_SMIWriteStart
                0x9d01b30c       0x38 build/default/production/_ext/732687875/drv_ethphy.o

.text.DRV_ETHPHY_SMIStatus
                0x9d01b344       0x38
 .text.DRV_ETHPHY_SMIStatus
                0x9d01b344       0x38 build/default/production/_ext/732687875/drv_ethphy.o
                0x9d01b344                DRV_ETHPHY_SMIStatus

.text._DRV_ETHPHY_ResetPhaseIdle
                0x9d01b37c       0x38
 .text._DRV_ETHPHY_ResetPhaseIdle
                0x9d01b37c       0x38 build/default/production/_ext/732687875/drv_ethphy.o

.text._ARPAllocateTxPacket
                0x9d01b3b4       0x38
 .text._ARPAllocateTxPacket
                0x9d01b3b4       0x38 build/default/production/_ext/1408260596/arp.o

.text.TCPIP_STACK_AddressServiceDefaultSet
                0x9d01b3ec       0x38
 .text.TCPIP_STACK_AddressServiceDefaultSet
                0x9d01b3ec       0x38 build/default/production/_ext/1408260596/tcpip_manager.o
                0x9d01b3ec                TCPIP_STACK_AddressServiceDefaultSet

.text.SYS_INT_SourceRestore
                0x9d01b424       0x34
 .text.SYS_INT_SourceRestore
                0x9d01b424       0x34 build/default/production/_ext/1688732426/system_interrupt.o
                0x9d01b424                SYS_INT_SourceRestore

.text.DRV_ETHMAC_LibTxAcknowledgeBuffer
                0x9d01b458       0x34
 .text.DRV_ETHMAC_LibTxAcknowledgeBuffer
                0x9d01b458       0x34 build/default/production/_ext/1908841681/drv_ethmac_lib.o
                0x9d01b458                DRV_ETHMAC_LibTxAcknowledgeBuffer

.text.DRV_ETHPHY_ClientOperationAbort
                0x9d01b48c       0x34
 .text.DRV_ETHPHY_ClientOperationAbort
                0x9d01b48c       0x34 build/default/production/_ext/732687875/drv_ethphy.o
                0x9d01b48c                DRV_ETHPHY_ClientOperationAbort

.text.DRV_ETHPHY_PhyAddressGet
                0x9d01b4c0       0x34
 .text.DRV_ETHPHY_PhyAddressGet
                0x9d01b4c0       0x34 build/default/production/_ext/732687875/drv_ethphy.o
                0x9d01b4c0                DRV_ETHPHY_PhyAddressGet

.text._DRV_ETHPHY_NegRestartPhaseIdle
                0x9d01b4f4       0x34
 .text._DRV_ETHPHY_NegRestartPhaseIdle
                0x9d01b4f4       0x34 build/default/production/_ext/732687875/drv_ethphy.o

.text._DRV_ETHPHY_NegCompletePhaseIdle
                0x9d01b528       0x34
 .text._DRV_ETHPHY_NegCompletePhaseIdle
                0x9d01b528       0x34 build/default/production/_ext/732687875/drv_ethphy.o

.text._DRV_ETHPHY_NegResultPhaseIdle
                0x9d01b55c       0x34
 .text._DRV_ETHPHY_NegResultPhaseIdle
                0x9d01b55c       0x34 build/default/production/_ext/732687875/drv_ethphy.o

.text._DRV_ETHPHY_LinkStatPhaseIdle
                0x9d01b590       0x34
 .text._DRV_ETHPHY_LinkStatPhaseIdle
                0x9d01b590       0x34 build/default/production/_ext/732687875/drv_ethphy.o

.text._TcpSocketChk
                0x9d01b5c4       0x34
 .text._TcpSocketChk
                0x9d01b5c4       0x34 build/default/production/_ext/1408260596/tcp.o

.text.TCPIP_TCP_GetIsReady
                0x9d01b5f8       0x34
 .text.TCPIP_TCP_GetIsReady
                0x9d01b5f8       0x34 build/default/production/_ext/1408260596/tcp.o
                0x9d01b5f8                TCPIP_TCP_GetIsReady

.text._UDPUpdatePacketLock
                0x9d01b62c       0x34
 .text._UDPUpdatePacketLock
                0x9d01b62c       0x34 build/default/production/_ext/1408260596/udp.o

.text._UDPSocketDcpt
                0x9d01b660       0x34
 .text._UDPSocketDcpt
                0x9d01b660       0x34 build/default/production/_ext/1408260596/udp.o

.text.TCPIP_Helper_ProtectedSingleListUnlock
                0x9d01b694       0x34
 .text.TCPIP_Helper_ProtectedSingleListUnlock
                0x9d01b694       0x34 build/default/production/_ext/1408260596/tcpip_helpers.o
                0x9d01b694                TCPIP_Helper_ProtectedSingleListUnlock

.text.TCPIP_STACK_NetAddress
                0x9d01b6c8       0x34
 .text.TCPIP_STACK_NetAddress
                0x9d01b6c8       0x34 build/default/production/_ext/1408260596/tcpip_manager.o
                0x9d01b6c8                TCPIP_STACK_NetAddress

.text.TCPIP_STACK_NetAddressBcast
                0x9d01b6fc       0x34
 .text.TCPIP_STACK_NetAddressBcast
                0x9d01b6fc       0x34 build/default/production/_ext/1408260596/tcpip_manager.o
                0x9d01b6fc                TCPIP_STACK_NetAddressBcast

.text.TCPIP_STACK_AddressServiceSelect
                0x9d01b730       0x34
 .text.TCPIP_STACK_AddressServiceSelect
                0x9d01b730       0x34 build/default/production/_ext/1408260596/tcpip_manager.o
                0x9d01b730                TCPIP_STACK_AddressServiceSelect

.text._TCPIPStackHandleToNetLinked
                0x9d01b764       0x34
 .text._TCPIPStackHandleToNetLinked
                0x9d01b764       0x34 build/default/production/_ext/1408260596/tcpip_manager.o
                0x9d01b764                _TCPIPStackHandleToNetLinked

.text.BSP_Initialize
                0x9d01b798       0x30
 .text.BSP_Initialize
                0x9d01b798       0x30 build/default/production/_ext/660089376/bsp_sys_init.o
                0x9d01b798                BSP_Initialize

.text.CRYPT_RNG_Initialize
                0x9d01b7c8       0x30
 .text.CRYPT_RNG_Initialize
                0x9d01b7c8       0x30 build/default/production/_ext/1886890887/crypto.o
                0x9d01b7c8                CRYPT_RNG_Initialize

.text.DRV_ETHMAC_PIC32MACDeinitialize
                0x9d01b7f8       0x30
 .text.DRV_ETHMAC_PIC32MACDeinitialize
                0x9d01b7f8       0x30 build/default/production/_ext/1908841681/drv_ethmac.o
                0x9d01b7f8                DRV_ETHMAC_PIC32MACDeinitialize

.text._MacCallocCallback
                0x9d01b828       0x30
 .text._MacCallocCallback
                0x9d01b828       0x30 build/default/production/_ext/1908841681/drv_ethmac.o

.text.DRV_ETHMAC_SingleListTailAdd
                0x9d01b858       0x30
 .text.DRV_ETHMAC_SingleListTailAdd
                0x9d01b858       0x30 build/default/production/_ext/1908841681/drv_ethmac_lib.o
                0x9d01b858                DRV_ETHMAC_SingleListTailAdd

.text.DRV_ETHPHY_VendorDataGet
                0x9d01b888       0x30
 .text.DRV_ETHPHY_VendorDataGet
                0x9d01b888       0x30 build/default/production/_ext/732687875/drv_ethphy.o
                0x9d01b888                DRV_ETHPHY_VendorDataGet

.text.NBNSSocketRxSignalHandler
                0x9d01b8b8       0x30
 .text.NBNSSocketRxSignalHandler
                0x9d01b8b8       0x30 build/default/production/_ext/1408260596/nbns.o

.text._TCPIP_AnnounceSocketRxSignalHandler
                0x9d01b8e8       0x30
 .text._TCPIP_AnnounceSocketRxSignalHandler
                0x9d01b8e8       0x30 build/default/production/_ext/1408260596/tcpip_announce.o

.text.TCPIP_Helper_SingleListTailAdd
                0x9d01b918       0x30
 .text.TCPIP_Helper_SingleListTailAdd
                0x9d01b918       0x30 build/default/production/_ext/1408260596/tcpip_helpers.o
                0x9d01b918                TCPIP_Helper_SingleListTailAdd

.text.TCPIP_STACK_NetAddressGet
                0x9d01b948       0x30
 .text.TCPIP_STACK_NetAddressGet
                0x9d01b948       0x30 build/default/production/_ext/1408260596/tcpip_manager.o
                0x9d01b948                TCPIP_STACK_NetAddressGet

.text.TCPIP_STACK_NetMaskGet
                0x9d01b978       0x30
 .text.TCPIP_STACK_NetMaskGet
                0x9d01b978       0x30 build/default/production/_ext/1408260596/tcpip_manager.o
                0x9d01b978                TCPIP_STACK_NetMaskGet

.text.TCPIP_STACK_NetworkIsLinked
                0x9d01b9a8       0x30
 .text.TCPIP_STACK_NetworkIsLinked
                0x9d01b9a8       0x30 build/default/production/_ext/1408260596/tcpip_manager.o
                0x9d01b9a8                TCPIP_STACK_NetworkIsLinked

.text._TCPIPStackModuleRxExtract
                0x9d01b9d8       0x30
 .text._TCPIPStackModuleRxExtract
                0x9d01b9d8       0x30 build/default/production/_ext/1408260596/tcpip_manager.o
                0x9d01b9d8                _TCPIPStackModuleRxExtract

.text.free      0x9d01ba08       0x30
 .text.free     0x9d01ba08       0x30 c:/program files (x86)/microchip/xc32/v1.40/bin/bin/../../lib/gcc/pic32mx/4.8.3/../../../../pic32mx/lib\libc.a(malloc.o)
                0x9d01ba08                free

.text.DRV_ETHPHY_Reinitialize
                0x9d01ba38       0x2c
 .text.DRV_ETHPHY_Reinitialize
                0x9d01ba38       0x2c build/default/production/_ext/732687875/drv_ethphy.o
                0x9d01ba38                DRV_ETHPHY_Reinitialize

.text._SYS_TMR_AlarmCallback
                0x9d01ba64       0x2c
 .text._SYS_TMR_AlarmCallback
                0x9d01ba64       0x2c build/default/production/_ext/1264926591/sys_tmr.o

.text.TCPIP_UDP_Discard
                0x9d01ba90       0x2c
 .text.TCPIP_UDP_Discard
                0x9d01ba90       0x2c build/default/production/_ext/1408260596/udp.o
                0x9d01ba90                TCPIP_UDP_Discard

.text.TCPIP_STACK_NetNameGet
                0x9d01babc       0x2c
 .text.TCPIP_STACK_NetNameGet
                0x9d01babc       0x2c build/default/production/_ext/1408260596/tcpip_manager.o
                0x9d01babc                TCPIP_STACK_NetNameGet

.text.TCPIP_Notification_Deinitialize
                0x9d01bae8       0x2c
 .text.TCPIP_Notification_Deinitialize
                0x9d01bae8       0x2c build/default/production/_ext/1408260596/tcpip_notify.o
                0x9d01bae8                TCPIP_Notification_Deinitialize

.text._stub_sbd_memlayout
                0x9d01bb14       0x2c
 .text._stub_sbd_memlayout
                0x9d01bb14       0x2c c:/program files (x86)/microchip/xc32/v1.40/bin/bin/../../lib/gcc/pic32mx/4.8.3/../../../../pic32mx/lib\libpic32.a(sbrk.o)
                0x9d01bb14                _sbd_memlayout
                0x9d01bb14                _stub_sbd_memlayout

.text._MacTxFreeCallback
                0x9d01bb40       0x28
 .text._MacTxFreeCallback
                0x9d01bb40       0x28 build/default/production/_ext/1908841681/drv_ethmac.o

.text.TCPIP_UDP_Put
                0x9d01bb68       0x28
 .text.TCPIP_UDP_Put
                0x9d01bb68       0x28 build/default/production/_ext/1408260596/udp.o
                0x9d01bb68                TCPIP_UDP_Put

.rodata         0x9d01bb90       0x28
 .rodata        0x9d01bb90       0x28 build/default/production/_ext/1408260596/arp.o

.text.TCPIP_STACK_IndexToNet
                0x9d01bbb8       0x28
 .text.TCPIP_STACK_IndexToNet
                0x9d01bbb8       0x28 build/default/production/_ext/1408260596/tcpip_manager.o
                0x9d01bbb8                TCPIP_STACK_IndexToNet

.text.TCPIP_STACK_NetMACAddressGet
                0x9d01bbe0       0x28
 .text.TCPIP_STACK_NetMACAddressGet
                0x9d01bbe0       0x28 build/default/production/_ext/1408260596/tcpip_manager.o
                0x9d01bbe0                TCPIP_STACK_NetMACAddressGet

.text._TCPIPStackSignalHandlerDeregister
                0x9d01bc08       0x28
 .text._TCPIPStackSignalHandlerDeregister
                0x9d01bc08       0x28 build/default/production/_ext/1408260596/tcpip_manager.o
                0x9d01bc08                _TCPIPStackSignalHandlerDeregister

.text.PLIB_ETH_MACSetMaxFrame
                0x9d01bc30       0x28
 .text.PLIB_ETH_MACSetMaxFrame
                0x9d01bc30       0x28 ..\..\..\..\bin\framework\peripheral\PIC32MZ2048ECH144_peripherals.a(plib_eth_lib.o)
                0x9d01bc30                PLIB_ETH_MACSetMaxFrame

.text.DRV_ETHMAC_PIC32MACClose
                0x9d01bc58       0x24
 .text.DRV_ETHMAC_PIC32MACClose
                0x9d01bc58       0x24 build/default/production/_ext/1908841681/drv_ethmac.o
                0x9d01bc58                DRV_ETHMAC_PIC32MACClose

.text.SYS_TMR_TickCountGet
                0x9d01bc7c       0x24
 .text.SYS_TMR_TickCountGet
                0x9d01bc7c       0x24 build/default/production/_ext/1264926591/sys_tmr.o
                0x9d01bc7c                SYS_TMR_TickCountGet

.text.SYS_TMR_TickCounterFrequencyGet
                0x9d01bca0       0x24
 .text.SYS_TMR_TickCounterFrequencyGet
                0x9d01bca0       0x24 build/default/production/_ext/1264926591/sys_tmr.o
                0x9d01bca0                SYS_TMR_TickCounterFrequencyGet

.text._TCP_TxPktValid
                0x9d01bcc4       0x24
 .text._TCP_TxPktValid
                0x9d01bcc4       0x24 build/default/production/_ext/1408260596/tcp.o

.text.TCPIP_HEAP_FreeSize
                0x9d01bce8       0x24
 .text.TCPIP_HEAP_FreeSize
                0x9d01bce8       0x24 build/default/production/_ext/1408260596/tcpip_heap_alloc.o
                0x9d01bce8                TCPIP_HEAP_FreeSize

.text._TCPIPSignalEntrySetNotify
                0x9d01bd0c       0x24
 .text._TCPIPSignalEntrySetNotify
                0x9d01bd0c       0x24 build/default/production/_ext/1408260596/tcpip_manager.o

.text.main      0x9d01bd30       0x20
 .text.main     0x9d01bd30       0x20 build/default/production/_ext/1360937237/main.o
                0x9d01bd30                main

.text.DRV_ETHMAC_PIC32MACStatus
                0x9d01bd50       0x20
 .text.DRV_ETHMAC_PIC32MACStatus
                0x9d01bd50       0x20 build/default/production/_ext/1908841681/drv_ethmac.o
                0x9d01bd50                DRV_ETHMAC_PIC32MACStatus

.text._DRV_ETHMAC_GetFrmTxOk
                0x9d01bd70       0x20
 .text._DRV_ETHMAC_GetFrmTxOk
                0x9d01bd70       0x20 build/default/production/_ext/1908841681/drv_ethmac.o

.text._DRV_ETHMAC_GetFrmRxOk
                0x9d01bd90       0x20
 .text._DRV_ETHMAC_GetFrmRxOk
                0x9d01bd90       0x20 build/default/production/_ext/1908841681/drv_ethmac.o

.text._DRV_ETHMAC_GetFrmPktCount
                0x9d01bdb0       0x20
 .text._DRV_ETHMAC_GetFrmPktCount
                0x9d01bdb0       0x20 build/default/production/_ext/1908841681/drv_ethmac.o

.text._DRV_ETHMAC_GetFrmRxOvflow
                0x9d01bdd0       0x20
 .text._DRV_ETHMAC_GetFrmRxOvflow
                0x9d01bdd0       0x20 build/default/production/_ext/1908841681/drv_ethmac.o

.text._DRV_ETHMAC_GetFrmFcsError
                0x9d01bdf0       0x20
 .text._DRV_ETHMAC_GetFrmFcsError
                0x9d01bdf0       0x20 build/default/production/_ext/1908841681/drv_ethmac.o

.text._DRV_ETHMAC_GetAlignError
                0x9d01be10       0x20
 .text._DRV_ETHMAC_GetAlignError
                0x9d01be10       0x20 build/default/production/_ext/1908841681/drv_ethmac.o

.text._DRV_ETHMAC_GetSCollisionCount
                0x9d01be30       0x20
 .text._DRV_ETHMAC_GetSCollisionCount
                0x9d01be30       0x20 build/default/production/_ext/1908841681/drv_ethmac.o

.text._DRV_ETHMAC_GetMCollisionCount
                0x9d01be50       0x20
 .text._DRV_ETHMAC_GetMCollisionCount
                0x9d01be50       0x20 build/default/production/_ext/1908841681/drv_ethmac.o

.text._DRV_ETHPHY_ClientObjectAllocate
                0x9d01be70       0x20
 .text._DRV_ETHPHY_ClientObjectAllocate
                0x9d01be70       0x20 build/default/production/_ext/732687875/drv_ethphy.o
                0x9d01be70                _DRV_ETHPHY_ClientObjectAllocate

.text.DRV_ETHPHY_Close
                0x9d01be90       0x20
 .text.DRV_ETHPHY_Close
                0x9d01be90       0x20 build/default/production/_ext/732687875/drv_ethphy.o
                0x9d01be90                DRV_ETHPHY_Close

.text.TCPIP_TCP_ArrayPut
                0x9d01beb0       0x20
 .text.TCPIP_TCP_ArrayPut
                0x9d01beb0       0x20 build/default/production/_ext/1408260596/tcp.o
                0x9d01beb0                TCPIP_TCP_ArrayPut

.text.TCPIP_TCP_ArrayGet
                0x9d01bed0       0x20
 .text.TCPIP_TCP_ArrayGet
                0x9d01bed0       0x20 build/default/production/_ext/1408260596/tcp.o
                0x9d01bed0                TCPIP_TCP_ArrayGet

.text.TCPIP_UDP_ServerOpen
                0x9d01bef0       0x20
 .text.TCPIP_UDP_ServerOpen
                0x9d01bef0       0x20 build/default/production/_ext/1408260596/udp.o
                0x9d01bef0                TCPIP_UDP_ServerOpen

.text.TCPIP_UDP_ClientOpen
                0x9d01bf10       0x20
 .text.TCPIP_UDP_ClientOpen
                0x9d01bf10       0x20 build/default/production/_ext/1408260596/udp.o
                0x9d01bf10                TCPIP_UDP_ClientOpen

.text.TCPIP_UDP_IsConnected
                0x9d01bf30       0x20
 .text.TCPIP_UDP_IsConnected
                0x9d01bf30       0x20 build/default/production/_ext/1408260596/udp.o
                0x9d01bf30                TCPIP_UDP_IsConnected

.text.TCPIP_UDP_ArrayPut
                0x9d01bf50       0x20
 .text.TCPIP_UDP_ArrayPut
                0x9d01bf50       0x20 build/default/production/_ext/1408260596/udp.o
                0x9d01bf50                TCPIP_UDP_ArrayPut

.text.TCPIP_UDP_Get
                0x9d01bf70       0x20
 .text.TCPIP_UDP_Get
                0x9d01bf70       0x20 build/default/production/_ext/1408260596/udp.o
                0x9d01bf70                TCPIP_UDP_Get

.text.TCPIP_UDP_ArrayGet
                0x9d01bf90       0x20
 .text.TCPIP_UDP_ArrayGet
                0x9d01bf90       0x20 build/default/production/_ext/1408260596/udp.o
                0x9d01bf90                TCPIP_UDP_ArrayGet

.text._ICMPAckPacket
                0x9d01bfb0       0x20
 .text._ICMPAckPacket
                0x9d01bfb0       0x20 build/default/production/_ext/1408260596/icmp.o

.text.TCPIP_STACK_Status
                0x9d01bfd0       0x20
 .text.TCPIP_STACK_Status
                0x9d01bfd0       0x20 build/default/production/_ext/1408260596/tcpip_manager.o
                0x9d01bfd0                TCPIP_STACK_Status

.text.TCPIP_STACK_AddressServiceCanStart
                0x9d01bff0       0x20
 .text.TCPIP_STACK_AddressServiceCanStart
                0x9d01bff0       0x20 build/default/production/_ext/1408260596/tcpip_manager.o
                0x9d01bff0                TCPIP_STACK_AddressServiceCanStart

.text.PLIB_ETH_EventsGet
                0x9d01c010       0x20
 .text.PLIB_ETH_EventsGet
                0x9d01c010       0x20 ..\..\..\..\bin\framework\peripheral\PIC32MZ2048ECH144_peripherals.a(plib_eth_lib.o)
                0x9d01c010                PLIB_ETH_EventsGet

.text._DRV_ETHPHY_ClientOpSmiScan
                0x9d01c030       0x1c
 .text._DRV_ETHPHY_ClientOpSmiScan
                0x9d01c030       0x1c build/default/production/_ext/732687875/drv_ethphy.o

.text.DRV_ETHPHY_VendorDataSet
                0x9d01c04c       0x1c
 .text.DRV_ETHPHY_VendorDataSet
                0x9d01c04c       0x1c build/default/production/_ext/732687875/drv_ethphy.o
                0x9d01c04c                DRV_ETHPHY_VendorDataSet

.rodata         0x9d01c068       0x1c
 .rodata        0x9d01c068       0x1c build/default/production/_ext/185269848/drv_tmr.o

.text.SYS_RANDOM_PseudoGet
                0x9d01c084       0x1c
 .text.SYS_RANDOM_PseudoGet
                0x9d01c084       0x1c build/default/production/_ext/1283840359/sys_random.o
                0x9d01c084                SYS_RANDOM_PseudoGet

.text.SYS_TMR_CallbackStop
                0x9d01c0a0       0x1c
 .text.SYS_TMR_CallbackStop
                0x9d01c0a0       0x1c build/default/production/_ext/1264926591/sys_tmr.o
                0x9d01c0a0                SYS_TMR_CallbackStop

.text.SYS_TMR_CallbackPeriodic
                0x9d01c0bc       0x1c
 .text.SYS_TMR_CallbackPeriodic
                0x9d01c0bc       0x1c build/default/production/_ext/1264926591/sys_tmr.o
                0x9d01c0bc                SYS_TMR_CallbackPeriodic

.text.TCPIP_UDP_TxPutIsReady
                0x9d01c0d8       0x1c
 .text.TCPIP_UDP_TxPutIsReady
                0x9d01c0d8       0x1c build/default/production/_ext/1408260596/udp.o
                0x9d01c0d8                TCPIP_UDP_TxPutIsReady

.text.TCPIP_OAHASH_EntryRemove
                0x9d01c0f4       0x1c
 .text.TCPIP_OAHASH_EntryRemove
                0x9d01c0f4       0x1c build/default/production/_ext/1408260596/oahash.o
                0x9d01c0f4                TCPIP_OAHASH_EntryRemove

.text.TCPIP_Helper_ChecksumFold
                0x9d01c110       0x1c
 .text.TCPIP_Helper_ChecksumFold
                0x9d01c110       0x1c build/default/production/_ext/1408260596/tcpip_helpers.o
                0x9d01c110                TCPIP_Helper_ChecksumFold

.text.TCPIP_Notification_Initialize
                0x9d01c12c       0x1c
 .text.TCPIP_Notification_Initialize
                0x9d01c12c       0x1c build/default/production/_ext/1408260596/tcpip_notify.o
                0x9d01c12c                TCPIP_Notification_Initialize

.text.PLIB_ETH_RxFiltersSet
                0x9d01c148       0x1c
 .text.PLIB_ETH_RxFiltersSet
                0x9d01c148       0x1c ..\..\..\..\bin\framework\peripheral\PIC32MZ2048ECH144_peripherals.a(plib_eth_lib.o)
                0x9d01c148                PLIB_ETH_RxFiltersSet

.text.PLIB_ETH_RxFiltersClr
                0x9d01c164       0x1c
 .text.PLIB_ETH_RxFiltersClr
                0x9d01c164       0x1c ..\..\..\..\bin\framework\peripheral\PIC32MZ2048ECH144_peripherals.a(plib_eth_lib.o)
                0x9d01c164                PLIB_ETH_RxFiltersClr

.text.PLIB_ETH_RxFiltersHTSet
                0x9d01c180       0x1c
 .text.PLIB_ETH_RxFiltersHTSet
                0x9d01c180       0x1c ..\..\..\..\bin\framework\peripheral\PIC32MZ2048ECH144_peripherals.a(plib_eth_lib.o)
                0x9d01c180                PLIB_ETH_RxFiltersHTSet

.text.srand     0x9d01c19c       0x1c
 .text.srand    0x9d01c19c       0x1c c:/program files (x86)/microchip/xc32/v1.40/bin/bin/../../lib/gcc/pic32mx/4.8.3/../../../../pic32mx/lib\libc.a(rand.o)
                0x9d01c19c                srand

.text.DRV_ETHPHY_Deinitialize
                0x9d01c1b8       0x18
 .text.DRV_ETHPHY_Deinitialize
                0x9d01c1b8       0x18 build/default/production/_ext/732687875/drv_ethphy.o
                0x9d01c1b8                DRV_ETHPHY_Deinitialize

.text.DRV_ETHPHY_Status
                0x9d01c1d0       0x18
 .text.DRV_ETHPHY_Status
                0x9d01c1d0       0x18 build/default/production/_ext/732687875/drv_ethphy.o
                0x9d01c1d0                DRV_ETHPHY_Status

.text.DRV_ETHPHY_ClientStatus
                0x9d01c1e8       0x18
 .text.DRV_ETHPHY_ClientStatus
                0x9d01c1e8       0x18 build/default/production/_ext/732687875/drv_ethphy.o
                0x9d01c1e8                DRV_ETHPHY_ClientStatus

.text.DRV_ETHPHY_ClientOperationResult
                0x9d01c200       0x18
 .text.DRV_ETHPHY_ClientOperationResult
                0x9d01c200       0x18 build/default/production/_ext/732687875/drv_ethphy.o
                0x9d01c200                DRV_ETHPHY_ClientOperationResult

.text.SYS_INT_Initialize
                0x9d01c218       0x18
 .text.SYS_INT_Initialize
                0x9d01c218       0x18 build/default/production/_ext/122796885/sys_int_pic32.o
                0x9d01c218                SYS_INT_Initialize

.text.TCPIP_ARP_HashKeyCompare
                0x9d01c230       0x18
 .text.TCPIP_ARP_HashKeyCompare
                0x9d01c230       0x18 build/default/production/_ext/1408260596/arp.o
                0x9d01c230                TCPIP_ARP_HashKeyCompare

.text.TCPIP_STACK_NetIxGet
                0x9d01c248       0x18
 .text.TCPIP_STACK_NetIxGet
                0x9d01c248       0x18 build/default/production/_ext/1408260596/tcpip_manager.o
                0x9d01c248                TCPIP_STACK_NetIxGet

.text.PLIB_ETH_EventsEnableSet
                0x9d01c260       0x18
 .text.PLIB_ETH_EventsEnableSet
                0x9d01c260       0x18 ..\..\..\..\bin\framework\peripheral\PIC32MZ2048ECH144_peripherals.a(plib_eth_lib.o)
                0x9d01c260                PLIB_ETH_EventsEnableSet

.text.PLIB_ETH_EventsEnableClr
                0x9d01c278       0x18
 .text.PLIB_ETH_EventsEnableClr
                0x9d01c278       0x18 ..\..\..\..\bin\framework\peripheral\PIC32MZ2048ECH144_peripherals.a(plib_eth_lib.o)
                0x9d01c278                PLIB_ETH_EventsEnableClr

.text.PLIB_ETH_EventsClr
                0x9d01c290       0x18
 .text.PLIB_ETH_EventsClr
                0x9d01c290       0x18 ..\..\..\..\bin\framework\peripheral\PIC32MZ2048ECH144_peripherals.a(plib_eth_lib.o)
                0x9d01c290                PLIB_ETH_EventsClr

.text           0x9d01c2a8       0x18
 .text          0x9d01c2a8       0x18 c:/program files (x86)/microchip/xc32/v1.40/bin/bin/../../lib/gcc/pic32mx/4.8.3/../../../../pic32mx/lib\libpic32.a(default-nmi-handler.o)
                0x9d01c2a8                _nmi_handler

.text.SYS_DEVCON_Initialize
                0x9d01c2c0       0x14
 .text.SYS_DEVCON_Initialize
                0x9d01c2c0       0x14 build/default/production/_ext/1271179505/sys_devcon.o
                0x9d01c2c0                SYS_DEVCON_Initialize

.rodata         0x9d01c2d4       0x10
 .rodata        0x9d01c2d4       0x10 build/default/production/_ext/732687875/drv_extphy_smsc8740.o
                0x9d01c2d4                DRV_ETHPHY_OBJECT_SMSC_LAN8740

.text.TCPIP_ARP_HashKeyCopy
                0x9d01c2e4       0x10
 .text.TCPIP_ARP_HashKeyCopy
                0x9d01c2e4       0x10 build/default/production/_ext/1408260596/arp.o
                0x9d01c2e4                TCPIP_ARP_HashKeyCopy

.text.TCPIP_Helper_SingleListInitialize
                0x9d01c2f4       0x10
 .text.TCPIP_Helper_SingleListInitialize
                0x9d01c2f4       0x10 build/default/production/_ext/1408260596/tcpip_helpers.o
                0x9d01c2f4                TCPIP_Helper_SingleListInitialize

.text.SYS_CLK_SystemFrequencyGet
                0x9d01c304        0xc
 .text.SYS_CLK_SystemFrequencyGet
                0x9d01c304        0xc build/default/production/_ext/639803181/sys_clk_static.o
                0x9d01c304                SYS_CLK_SystemFrequencyGet

.text.APP_Initialize
                0x9d01c310        0xc
 .text.APP_Initialize
                0x9d01c310        0xc build/default/production/_ext/1360937237/app.o
                0x9d01c310                APP_Initialize

.rodata         0x9d01c31c        0xc
 .rodata        0x9d01c31c        0xc build/default/production/_ext/1360937237/app.o

.text.DRV_ETHMAC_PIC32MACEventPendingGet
                0x9d01c328        0xc
 .text.DRV_ETHMAC_PIC32MACEventPendingGet
                0x9d01c328        0xc build/default/production/_ext/1908841681/drv_ethmac.o
                0x9d01c328                DRV_ETHMAC_PIC32MACEventPendingGet

.text.DRV_EXTPHY_SMIClockGet
                0x9d01c334        0xc
 .text.DRV_EXTPHY_SMIClockGet
                0x9d01c334        0xc build/default/production/_ext/732687875/drv_extphy_smsc8740.o

.text.SYS_TMR_ModuleStatusGet
                0x9d01c340        0xc
 .text.SYS_TMR_ModuleStatusGet
                0x9d01c340        0xc build/default/production/_ext/1264926591/sys_tmr.o
                0x9d01c340                SYS_TMR_ModuleStatusGet

.text.TCPIP_STACK_NumberOfNetworksGet
                0x9d01c34c        0xc
 .text.TCPIP_STACK_NumberOfNetworksGet
                0x9d01c34c        0xc build/default/production/_ext/1408260596/tcpip_manager.o
                0x9d01c34c                TCPIP_STACK_NumberOfNetworksGet

.text.TCPIP_STACK_NetBIOSName
                0x9d01c358        0xc
 .text.TCPIP_STACK_NetBIOSName
                0x9d01c358        0xc build/default/production/_ext/1408260596/tcpip_manager.o
                0x9d01c358                TCPIP_STACK_NetBIOSName

.text.APP1_Initialize
                0x9d01c364        0x8
 .text.APP1_Initialize
                0x9d01c364        0x8 build/default/production/_ext/1360937237/app1.o
                0x9d01c364                APP1_Initialize

.text.APP2_Initialize
                0x9d01c36c        0x8
 .text.APP2_Initialize
                0x9d01c36c        0x8 build/default/production/_ext/1360937237/app2.o
                0x9d01c36c                APP2_Initialize

.text.DRV_ETHMAC_PIC32MACReinitialize
                0x9d01c374        0x8
 .text.DRV_ETHMAC_PIC32MACReinitialize
                0x9d01c374        0x8 build/default/production/_ext/1908841681/drv_ethmac.o
                0x9d01c374                DRV_ETHMAC_PIC32MACReinitialize

.text.DRV_ETHMAC_PIC32MACPowerMode
                0x9d01c37c        0x8
 .text.DRV_ETHMAC_PIC32MACPowerMode
                0x9d01c37c        0x8 build/default/production/_ext/1908841681/drv_ethmac.o
                0x9d01c37c                DRV_ETHMAC_PIC32MACPowerMode

.text._DRV_ETHPHY_ClientOpNone
                0x9d01c384        0x8
 .text._DRV_ETHPHY_ClientOpNone
                0x9d01c384        0x8 build/default/production/_ext/732687875/drv_ethphy.o

.text.DRV_TMR_Tasks
                0x9d01c38c        0x8
 .text.DRV_TMR_Tasks
                0x9d01c38c        0x8 build/default/production/_ext/185269848/drv_tmr.o
                0x9d01c38c                DRV_TMR_Tasks

.text.SYS_DEVCON_Tasks
                0x9d01c394        0x8
 .text.SYS_DEVCON_Tasks
                0x9d01c394        0x8 build/default/production/_ext/1271179505/sys_devcon.o
                0x9d01c394                SYS_DEVCON_Tasks

.rodata         0x9d01c39c       0x18
 .rodata        0x9d01c39c        0x8 build/default/production/_ext/1264926591/sys_tmr.o
 .rodata        0x9d01c3a4        0x8 build/default/production/_ext/1408260596/tcp.o
 .rodata        0x9d01c3ac        0x8 build/default/production/_ext/1408260596/udp.o

.text.TCPIP_PKT_Deinitialize
                0x9d01c3b4        0x8
 .text.TCPIP_PKT_Deinitialize
                0x9d01c3b4        0x8 build/default/production/_ext/1408260596/tcpip_packet.o
                0x9d01c3b4                TCPIP_PKT_Deinitialize

.text._on_reset
                0x9d01c3bc        0x8
 .text._on_reset
                0x9d01c3bc        0x8 c:/program files (x86)/microchip/xc32/v1.40/bin/bin/../../lib/gcc/pic32mx/4.8.3/../../../../pic32mx/lib\libpic32.a(default-on-reset.o)
                0x9d01c3bc                _on_reset

.text._on_bootstrap
                0x9d01c3c4        0x8
 .text._on_bootstrap
                0x9d01c3c4        0x8 c:/program files (x86)/microchip/xc32/v1.40/bin/bin/../../lib/gcc/pic32mx/4.8.3/../../../../pic32mx/lib\libpic32.a(default-on-bootstrap.o)
                0x9d01c3c4                _on_bootstrap

.rodata         0x9d01c3cc        0x4
 .rodata        0x9d01c3cc        0x4 build/default/production/_ext/1408260596/tcpip_announce.o
